(lp0
(lp1
I38
aI2
aF0.15811388300841897
aI115
aa(lp2
I115
aI8
aF0.1643989873053573
aI163
aa(lp3
I163
aI8
aF0.19611613513818404
aI451
aa(lp4
I451
aI8
aF0.2
aI499
aa(lp5
I499
aI8
aF0.25
aI723
aa(lp6
I723
aI3
aF0.25
aI674
aa(lp7
I674
aI5
aF0.4472135954999579
aI901
aa(lp8
I901
aI4
aF0.4472135954999579
aI822
aa(lp9
I822
aI2
aF0.23570226039551587
aI771
aa(lp10
I771
aI3
aF0.35355339059327373
aI1058
aa(lp11
I1058
aI8
aF0.4472135954999579
aI1106
aa(lp12
I1106
aI4
aF0.4472135954999579
aI1395
aa(lp13
I1395
aI8
aI-10
aI1443
aa(lp14
I63
aI0
aF0.22360679774997896
aI10
aa(lp15
I10
aI1
aF0.22360679774997896
aI294
aa(lp16
I294
aI3
aF0.25
aI373
aa(lp17
I373
aI5
aF0.2773500981126146
aI424
aa(lp18
I424
aI7
aF0.7071067811865475
aI717
aa(lp19
I717
aI0
aF0.2773500981126146
aI760
aa(lp20
I760
aI1
aF0.2773500981126146
aI980
aa(lp21
I980
aI7
aF0.7071067811865475
aI937
aa(lp22
I937
aI6
aF0.7071067811865475
aI1165
aa(lp23
I1165
aI2
aF1.0
aI1082
aa(lp24
I1082
aI1
aF0.4472135954999579
aI1030
aa(lp25
I1030
aI6
aF0.4472135954999579
aI1290
aa(lp26
I242
aI6
aF0.24253562503633297
aI502
aa(lp27
I502
aI6
aF0.4472135954999579
aI762
aa(lp28
I762
aI1
aF0.4472135954999579
aI1014
aa(lp29
I1014
aI2
aF0.5
aI1267
aa(lp30
I1267
aI3
aF0.7071067811865475
aI1522
aa(lp31
I244
aI7
aF0.2773500981126146
aI505
aa(lp32
I505
aI0
aF0.23570226039551587
aI724
aa(lp33
I724
aI2
aF0.24253562503633297
aI673
aa(lp34
I673
aI6
aF0.4472135954999579
aI933
aa(lp35
I933
aI1
aF0.4472135954999579
aI1153
aa(lp36
I1153
aI4
aF0.4472135954999579
aI1106
aa(lp37
I1106
aI5
aI10
aI1333
aa(lp38
I34
aI5
aF0.2
aI117
aa(lp39
I117
aI4
aF0.2
aI166
aa(lp40
I166
aI8
aF0.25
aI454
aa(lp41
I454
aI1
aF0.19611613513818404
aI498
aa(lp42
I498
aI7
aF0.3333333333333333
aI727
aa(lp43
I727
aI1
aF0.24253562503633297
aI675
aa(lp44
I675
aI6
aF0.4472135954999579
aI903
aa(lp45
I903
aI6
aF0.4472135954999579
aI859
aa(lp46
I859
aI1
aF0.4472135954999579
aI1079
aa(lp47
I1079
aI3
aF0.4472135954999579
aI1030
aa(lp48
I1030
aI7
aF0.31622776601683794
aI1323
aa(lp49
I1323
aI6
aI-10
aI1375
aa(lp50
I219
aI0
aF0.2
aI166
aa(lp51
I166
aI8
aF0.25
aI390
aa(lp52
I390
aI3
aF0.25
aI309
aa(lp53
I309
aI4
aF0.22360679774997896
aI262
aa(lp54
I262
aI7
aF0.2773500981126146
aI555
aa(lp55
I555
aI0
aF0.31622776601683794
aI598
aa(lp56
I598
aI1
aF0.31622776601683794
aI882
aa(lp57
I882
aI4
aF0.31622776601683794
aI963
aa(lp58
I963
aI8
aF0.3333333333333333
aI1011
aa(lp59
I1011
aI5
aF0.7071067811865475
aI1238
aa(lp60
I1238
aI7
aF1.0
aI1195
aa(lp61
I1195
aI0
aI10
aI1414
aa(lp62
I166
aI0
aF0.19611613513818404
aI449
aa(lp63
I449
aI4
aF0.19611613513818404
aI498
aa(lp64
I498
aI6
aF0.31622776601683794
aI758
aa(lp65
I758
aI5
aF0.4472135954999579
aI1017
aa(lp66
I1017
aI3
aF0.3333333333333333
aI1240
aa(lp67
I1240
aI8
aF0.5
aI1192
aa(lp68
I1192
aI7
aI-10
aI1453
aa(lp69
I83
aI3
aF0.19611613513818404
aI370
aa(lp70
I370
aI4
aF0.19611613513818404
aI419
aa(lp71
I419
aI6
aF0.31622776601683794
aI679
aa(lp72
I679
aI6
aF0.7071067811865475
aI939
aa(lp73
I939
aI8
aI5
aI1227
aa(lp74
I2
aI7
aF0.2
aI279
aa(lp75
I279
aI3
aF0.31622776601683794
aI598
aa(lp76
I598
aI4
aF0.35355339059327373
aI887
aa(lp77
I887
aI3
aF0.5
aI934
aa(lp78
I934
aI2
aF0.4472135954999579
aI1219
aa(lp79
I1219
aI3
aF0.4472135954999579
aI1266
aa(lp80
I1266
aI5
aF0.5
aI1525
aa(lp81
I169
aI6
aF0.4472135954999579
aI397
aa(lp82
I397
aI2
aF0.31622776601683794
aI346
aa(lp83
I346
aI5
aI5
aI605
aa(lp84
I210
aI3
aF0.1643989873053573
aI161
aa(lp85
I161
aI6
aF0.24253562503633297
aI389
aa(lp86
I389
aI0
aF0.19611613513818404
aI336
aa(lp87
I336
aI4
aF0.25
aI561
aa(lp88
I561
aI8
aF0.24253562503633297
aI513
aa(lp89
I513
aI6
aF0.4472135954999579
aI773
aa(lp90
I773
aI3
aF1.0
aI1060
aa(lp91
I1060
aI6
aF1.0
aI1112
aa(lp92
I1112
aI1
aF1.0
aI1396
aa(lp93
I1396
aI1
aF0.4472135954999579
aI1456
aa(lp94
I249
aI1
aF0.22360679774997896
aI469
aa(lp95
I469
aI5
aF0.2773500981126146
aI424
aa(lp96
I424
aI6
aF0.4472135954999579
aI652
aa(lp97
I652
aI1
aF0.4472135954999579
aI600
aa(lp98
I600
aI4
aI5
aI857
aa(lp99
I162
aI3
aF0.19611613513818404
aI449
aa(lp100
I449
aI8
aF0.18569533817705186
aI497
aa(lp101
I497
aI7
aF0.31622776601683794
aI758
aa(lp102
I758
aI6
aF0.7071067811865475
aI986
aa(lp103
I986
aI8
aI5
aI938
aa(lp104
I53
aI6
aF0.24253562503633297
aI9
aa(lp105
I9
aI1
aF0.24253562503633297
aI261
aa(lp106
I261
aI5
aF0.5
aI552
aa(lp107
I552
aI2
aF0.3333333333333333
aI597
aa(lp108
I597
aI8
aF0.5
aI853
aa(lp109
I853
aI0
aF0.4472135954999579
aI1136
aa(lp110
I1136
aI7
aF0.7071067811865475
aI1189
aa(lp111
I1189
aI1
aF0.7071067811865475
aI1473
aa(lp112
I1473
aI4
aF0.7071067811865475
aI1522
aa(lp113
I12
aI4
aF0.4472135954999579
aI269
aa(lp114
I269
aI1
aF0.4472135954999579
aI521
aa(lp115
I521
aI5
aI10
aI812
aa(lp116
I81
aI6
aF0.25
aI341
aa(lp117
I341
aI0
aF0.24253562503633297
aI592
aa(lp118
I592
aI8
aF0.31622776601683794
aI848
aa(lp119
I848
aI4
aF0.5
aI1105
aa(lp120
I1105
aI4
aF0.7071067811865475
aI1394
aa(lp121
I1394
aI5
aI-10
aI1445
aa(lp122
I36
aI6
aF0.24253562503633297
aI88
aa(lp123
I88
aI4
aF0.3333333333333333
aI377
aa(lp124
I377
aI7
aF0.5
aI430
aa(lp125
I430
aI0
aF0.4472135954999579
aI713
aa(lp126
I713
aI2
aF0.31622776601683794
aI758
aa(lp127
I758
aI0
aF0.2773500981126146
aI977
aa(lp128
I977
aI5
aF0.35355339059327373
aI932
aa(lp129
I932
aI6
aF0.5
aI1160
aa(lp130
I1160
aI8
aF1.0
aI1112
aa(lp131
I1112
aI4
aF1.0
aI1337
aa(lp132
I1337
aI8
aF0.7071067811865475
aI1289
aa(lp133
I115
aI5
aF0.2
aI166
aa(lp134
I166
aI0
aF0.19611613513818404
aI417
aa(lp135
I417
aI8
aF0.24253562503633297
aI673
aa(lp136
I673
aI6
aF0.4472135954999579
aI933
aa(lp137
I933
aI7
aI10
aI1194
aa(lp138
I86
aI7
aF0.2773500981126146
aI347
aa(lp139
I347
aI3
aF0.4472135954999579
aI602
aa(lp140
I602
aI6
aF1.0
aI862
aa(lp141
I862
aI2
aF0.5
aI1115
aa(lp142
I1115
aI8
aI-10
aI1371
aa(lp143
I210
aI8
aF0.16666666666666666
aI130
aa(lp144
I130
aI4
aF0.15811388300841897
aI83
aa(lp145
I83
aI5
aF0.24253562503633297
aI310
aa(lp146
I310
aI5
aF0.31622776601683794
aI265
aa(lp147
I265
aI5
aF1.0
aI556
aa(lp148
I556
aI2
aF0.5
aI601
aa(lp149
I601
aI7
aI5
aI894
aa(lp150
I3
aI5
aF0.22360679774997896
aI294
aa(lp151
I294
aI2
aF0.18569533817705186
aI339
aa(lp152
I339
aI3
aF0.24253562503633297
aI626
aa(lp153
I626
aI3
aF0.24253562503633297
aI673
aa(lp154
I673
aI5
aF0.35355339059327373
aI964
aa(lp155
I964
aI4
aF0.35355339059327373
aI1013
aa(lp156
I1013
aI1
aF0.35355339059327373
aI1249
aa(lp157
I1249
aI4
aI-10
aI1426
aa(lp158
I46
aI4
aF0.2773500981126146
aI95
aa(lp159
I95
aI0
aF0.31622776601683794
aI346
aa(lp160
I346
aI0
aF0.3333333333333333
aI629
aa(lp161
I629
aI4
aF0.3333333333333333
aI678
aa(lp162
I678
aI0
aF0.31622776601683794
aI961
aa(lp163
I961
aI4
aF0.31622776601683794
aI1010
aa(lp164
I1010
aI3
aF0.35355339059327373
aI1265
aa(lp165
I1265
aI4
aF0.7071067811865475
aI1490
aa(lp166
I1490
aI8
aI5
aI1442
aa(lp167
I14
aI4
aF0.2773500981126146
aI303
aa(lp168
I303
aI3
aF0.4472135954999579
aI350
aa(lp169
I350
aI0
aF0.5
aI633
aa(lp170
I633
aI8
aF0.4472135954999579
aI681
aa(lp171
I681
aI4
aF1.0
aI970
aa(lp172
I970
aI8
aF0.7071067811865475
aI1018
aa(lp173
I1018
aI8
aF1.0
aI1274
aa(lp174
I1274
aI4
aF1.0
aI1499
aa(lp175
I1499
aI8
aI-10
aI1451
aa(lp176
I3
aI8
aF0.17149858514250882
aI259
aa(lp177
I259
aI3
aF0.22360679774997896
aI546
aa(lp178
I546
aI6
aF0.31622776601683794
aI598
aa(lp179
I598
aI4
aF0.35355339059327373
aI855
aa(lp180
I855
aI0
aF0.4472135954999579
aI1138
aa(lp181
I1138
aI7
aF0.7071067811865475
aI1191
aa(lp182
I1191
aI0
aF1.0
aI1474
aa(lp183
I1474
aI3
aF0.4472135954999579
aI1521
aa(lp184
I246
aI6
aF0.31622776601683794
aI506
aa(lp185
I506
aI5
aF0.4472135954999579
aI733
aa(lp186
I733
aI8
aF0.7071067811865475
aI685
aa(lp187
I685
aI2
aF1.0
aI906
aa(lp188
I906
aI1
aF0.4472135954999579
aI854
aa(lp189
I854
aI1
aF0.4472135954999579
aI1074
aa(lp190
I1074
aI3
aF0.4472135954999579
aI1025
aa(lp191
I1025
aI5
aI10
aI1284
aa(lp192
I81
aI4
aF0.19611613513818404
aI370
aa(lp193
I370
aI6
aF0.25
aI422
aa(lp194
I422
aI3
aF0.31622776601683794
aI709
aa(lp195
I709
aI7
aF0.4472135954999579
aI762
aa(lp196
I762
aI2
aF0.5
aI1015
aa(lp197
I1015
aI1
aF0.5
aI1235
aa(lp198
I1235
aI8
aF0.4472135954999579
aI1171
aa(lp199
I1171
aI5
aI-10
aI1366
aa(lp200
I129
aI7
aF0.19611613513818404
aI86
aa(lp201
I86
aI5
aF0.3333333333333333
aI313
aa(lp202
I313
aI0
aF0.25
aI260
aa(lp203
I260
aI2
aF0.24253562503633297
aI513
aa(lp204
I513
aI5
aF0.5
aI804
aa(lp205
I804
aI7
aI5
aI857
aa(lp206
I126
aI0
aF0.24253562503633297
aI169
aa(lp207
I169
aI8
aF0.31622776601683794
aI457
aa(lp208
I457
aI0
aF0.2
aI500
aa(lp209
I500
aI2
aF0.22360679774997896
aI753
aa(lp210
I753
aI7
aF0.4472135954999579
aI1014
aa(lp211
I1014
aI5
aF0.5
aI1273
aa(lp212
I1273
aI0
aF0.3333333333333333
aI1492
aa(lp213
I1492
aI7
aI-10
aI1449
aa(lp214
I9
aI6
aF0.4472135954999579
aI301
aa(lp215
I301
aI4
aF0.4472135954999579
aI350
aa(lp216
I350
aI1
aF0.4472135954999579
aI634
aa(lp217
I634
aI5
aF0.7071067811865475
aI685
aa(lp218
I685
aI0
aF0.4472135954999579
aI952
aa(lp219
I952
aI8
aF0.3333333333333333
aI1272
aa(lp220
I1272
aI8
aF0.31622776601683794
aI1528
aa(lp221
I51
aI6
aF0.17149858514250882
aI7
aa(lp222
I7
aI3
aF0.22360679774997896
aI262
aa(lp223
I262
aI2
aF0.2
aI515
aa(lp224
I515
aI5
aF0.35355339059327373
aI774
aa(lp225
I774
aI5
aF1.0
aI1033
aa(lp226
I1033
aI4
aF0.4472135954999579
aI1290
aa(lp227
I219
aI8
aF0.24253562503633297
aI171
aa(lp228
I171
aI1
aF0.24253562503633297
aI407
aa(lp229
I407
aI6
aF0.35355339059327373
aI603
aa(lp230
I603
aI5
aF1.0
aI830
aa(lp231
I830
aI0
aF0.7071067811865475
aI777
aa(lp232
I777
aI4
aF0.5
aI1034
aa(lp233
I1034
aI3
aF0.7071067811865475
aI1321
aa(lp234
I1321
aI1
aI10
aI1365
aa(lp235
I14
aI8
aF0.35355339059327373
aI302
aa(lp236
I302
aI2
aF0.2773500981126146
aI347
aa(lp237
I347
aI3
aF0.4472135954999579
aI602
aa(lp238
I602
aI5
aI10
aI893
aa(lp239
I42
aI4
aF0.22360679774997896
aI91
aa(lp240
I91
aI5
aF0.4472135954999579
aI350
aa(lp241
I350
aI0
aF0.5
aI633
aa(lp242
I633
aI1
aF0.31622776601683794
aI677
aa(lp243
I677
aI6
aF0.7071067811865475
aI937
aa(lp244
I937
aI8
aF1.0
aI1225
aa(lp245
I1225
aI4
aF1.0
aI1274
aa(lp246
I1274
aI0
aF0.5
aI1525
aa(lp247
I241
aI3
aF0.17149858514250882
aI496
aa(lp248
I496
aI4
aF0.22360679774997896
aI753
aa(lp249
I753
aI6
aF0.35355339059327373
aI981
aa(lp250
I981
aI6
aF0.7071067811865475
aI937
aa(lp251
I937
aI5
aF0.4472135954999579
aI1196
aa(lp252
I1196
aI1
aI-10
aI1448
aa(lp253
I218
aI7
aF0.31622776601683794
aI175
aa(lp254
I175
aI3
aF0.5
aI398
aa(lp255
I398
aI2
aF0.2773500981126146
aI315
aa(lp256
I315
aI5
aF0.35355339059327373
aI270
aa(lp257
I270
aI8
aF0.4472135954999579
aI526
aa(lp258
I526
aI8
aF0.5
aI814
aa(lp259
I814
aI8
aF1.0
aI862
aa(lp260
I862
aI3
aF1.0
aI1149
aa(lp261
I1149
aI1
aF1.0
aI1225
aa(lp262
I1225
aI8
aF0.5
aI1273
aa(lp263
I1273
aI4
aF0.7071067811865475
aI1530
aa(lp264
I43
aI8
aF0.22360679774997896
aI91
aa(lp265
I91
aI6
aF0.35355339059327373
aI383
aa(lp266
I383
aI3
aF0.5
aI430
aa(lp267
I430
aI8
aF1.0
aI718
aa(lp268
I718
aI8
aF0.7071067811865475
aI766
aa(lp269
I766
aI8
aI5
aI990
aa(lp270
I173
aI3
aF0.35355339059327373
aI396
aa(lp271
I396
aI4
aF0.5
aI349
aa(lp272
I349
aI2
aF0.4472135954999579
aI602
aa(lp273
I602
aI8
aF0.7071067811865475
aI858
aa(lp274
I858
aI5
aF1.0
aI1085
aa(lp275
I1085
aI3
aF1.0
aI1036
aa(lp276
I1036
aI2
aF0.7071067811865475
aI1289
aa(lp277
I211
aI8
aF0.1643989873053573
aI163
aa(lp278
I163
aI5
aF0.25
aI390
aa(lp279
I390
aI0
aF0.2
aI337
aa(lp280
I337
aI3
aF0.24253562503633297
aI560
aa(lp281
I560
aI8
aF0.25
aI512
aa(lp282
I512
aI4
aF0.31622776601683794
aI769
aa(lp283
I769
aI5
aI5
aI1028
aa(lp284
I15
aI0
aF0.2773500981126146
aI266
aa(lp285
I266
aI4
aF0.2773500981126146
aI555
aa(lp286
I555
aI6
aF0.4472135954999579
aI607
aa(lp287
I607
aI8
aF0.5
aI863
aa(lp288
I863
aI0
aI5
aI1146
aa(lp289
I212
aI2
aF0.1643989873053573
aI161
aa(lp290
I161
aI7
aF0.25
aI422
aa(lp291
I422
aI6
aF0.5
aI682
aa(lp292
I682
aI6
aI10
aI910
aa(lp293
I95
aI1
aF0.2773500981126146
aI379
aa(lp294
I379
aI5
aF0.5
aI430
aa(lp295
I430
aI4
aF0.7071067811865475
aI719
aa(lp296
I719
aI3
aF0.7071067811865475
aI766
aa(lp297
I766
aI3
aF0.5
aI1021
aa(lp298
I1021
aI3
aF0.31622776601683794
aI1276
aa(lp299
I1276
aI2
aF0.4472135954999579
aI1529
aa(lp300
I207
aI1
aF0.25
aI251
aa(lp301
I251
aI5
aF0.4472135954999579
aI510
aa(lp302
I510
aI2
aF0.5
aI763
aa(lp303
I763
aI5
aF1.0
aI1022
aa(lp304
I1022
aI2
aI10
aI1243
aa(lp305
I45
aI0
aF0.24253562503633297
aI88
aa(lp306
I88
aI2
aF0.25
aI373
aa(lp307
I373
aI2
aF0.2
aI450
aa(lp308
I450
aI7
aF0.25
aI503
aa(lp309
I503
aI5
aF0.4472135954999579
aI730
aa(lp310
I730
aI4
aF0.4472135954999579
aI683
aa(lp311
I683
aI6
aF1.0
aI911
aa(lp312
I911
aI3
aF1.0
aI830
aa(lp313
I830
aI2
aF0.31622776601683794
aI779
aa(lp314
I779
aI3
aF0.5
aI1066
aa(lp315
I1066
aI2
aF0.4472135954999579
aI1111
aa(lp316
I1111
aI0
aF0.7071067811865475
aI1394
aa(lp317
I1394
aI4
aF0.7071067811865475
aI1475
aa(lp318
I1475
aI3
aF0.7071067811865475
aI1522
aa(lp319
I6
aI3
aF0.24253562503633297
aI293
aa(lp320
I293
aI2
aF0.19611613513818404
aI338
aa(lp321
I338
aI8
aF0.24253562503633297
aI626
aa(lp322
I626
aI5
aF0.31622776601683794
aI677
aa(lp323
I677
aI2
aF0.3333333333333333
aI962
aa(lp324
I962
aI4
aF0.3333333333333333
aI1011
aa(lp325
I1011
aI3
aF0.4472135954999579
aI1266
aa(lp326
I1266
aI5
aI-10
aI1509
aa(lp327
I13
aI8
aF0.4472135954999579
aI301
aa(lp328
I301
aI1
aF0.3333333333333333
aI345
aa(lp329
I345
aI2
aF0.31622776601683794
aI630
aa(lp330
I630
aI6
aF0.5
aI682
aa(lp331
I682
aI8
aF1.0
aI970
aa(lp332
I970
aI0
aF0.35355339059327373
aI1013
aa(lp333
I1013
aI4
aF0.7071067811865475
aI1270
aa(lp334
I1270
aI0
aF0.4472135954999579
aI1489
aa(lp335
I1489
aI3
aI-10
aI1440
aa(lp336
I214
aI6
aF0.25
aI138
aa(lp337
I138
aI3
aF0.25
aI89
aa(lp338
I89
aI6
aF0.5
aI317
aa(lp339
I317
aI1
aF0.31622776601683794
aI265
aa(lp340
I265
aI5
aF1.0
aI556
aa(lp341
I556
aI2
aF0.5
aI601
aa(lp342
I601
aI8
aF1.0
aI889
aa(lp343
I889
aI8
aF0.7071067811865475
aI969
aa(lp344
I969
aI6
aF0.5
aI1021
aa(lp345
I1021
aI0
aF0.3333333333333333
aI1256
aa(lp346
I1256
aI8
aF0.4472135954999579
aI1416
aa(lp347
I1416
aI6
aI-10
aI1372
aa(lp348
I116
aI1
aF0.15811388300841897
aI160
aa(lp349
I160
aI6
aF0.22360679774997896
aI452
aa(lp350
I452
aI4
aF0.22360679774997896
aI501
aa(lp351
I501
aI1
aF0.22360679774997896
aI753
aa(lp352
I753
aI6
aF0.35355339059327373
aI1013
aa(lp353
I1013
aI5
aF0.3333333333333333
aI1240
aa(lp354
I1240
aI2
aF0.7071067811865475
aI1189
aa(lp355
I1189
aI8
aI5
aI1413
aa(lp356
I103
aI5
aF0.3333333333333333
aI442
aa(lp357
I442
aI5
aF0.4472135954999579
aI765
aa(lp358
I765
aI3
aF0.3333333333333333
aI988
aa(lp359
I988
aI8
aF0.5
aI940
aa(lp360
I940
aI2
aI5
aI1161
aa(lp361
I120
aI2
aF0.19611613513818404
aI165
aa(lp362
I165
aI2
aF0.2
aI418
aa(lp363
I418
aI5
aF0.31622776601683794
aI709
aa(lp364
I709
aI1
aF0.22360679774997896
aI753
aa(lp365
I753
aI4
aF0.31622776601683794
aI1010
aa(lp366
I1010
aI8
aF0.4472135954999579
aI1266
aa(lp367
I1266
aI6
aI5
aI1494
aa(lp368
I168
aI8
aF0.2773500981126146
aI408
aa(lp369
I408
aI1
aF0.31622776601683794
aI596
aa(lp370
I596
aI1
aF0.31622776601683794
aI848
aa(lp371
I848
aI7
aI5
aI1109
aa(lp372
I53
aI3
aF0.2
aI4
aa(lp373
I4
aI6
aF0.3333333333333333
aI264
aa(lp374
I264
aI8
aF0.5
aI552
aa(lp375
I552
aI8
aF0.4472135954999579
aI600
aa(lp376
I600
aI2
aF0.5
aI885
aa(lp377
I885
aI5
aF0.4472135954999579
aI936
aa(lp378
I936
aI6
aF0.4472135954999579
aI1228
aa(lp379
I1228
aI1
aF0.3333333333333333
aI1272
aa(lp380
I1272
aI1
aF0.3333333333333333
aI1524
aa(lp381
I85
aI2
aF0.19611613513818404
aI338
aa(lp382
I338
aI3
aF0.25
aI593
aa(lp383
I593
aI4
aF0.31622776601683794
aI882
aa(lp384
I882
aI5
aF0.4472135954999579
aI933
aa(lp385
I933
aI0
aF0.35355339059327373
aI1184
aa(lp386
I1184
aI4
aI-10
aI1441
aa(lp387
I41
aI6
aF0.3333333333333333
aI93
aa(lp388
I93
aI4
aF0.4472135954999579
aI382
aa(lp389
I382
aI8
aF0.5
aI462
aa(lp390
I462
aI2
aF0.3333333333333333
aI507
aa(lp391
I507
aI3
aF0.4472135954999579
aI762
aa(lp392
I762
aI0
aF0.35355339059327373
aI981
aa(lp393
I981
aI7
aF1.0
aI922
aa(lp394
I922
aI0
aF1.0
aI1077
aa(lp395
I1077
aI1
aF0.4472135954999579
aI1025
aa(lp396
I1025
aI3
aI5
aI1280
aa(lp397
I2
aI5
aF0.24253562503633297
aI261
aa(lp398
I261
aI1
aF0.24253562503633297
aI545
aa(lp399
I545
aI6
aF0.3333333333333333
aI597
aa(lp400
I597
aI2
aF0.31622776601683794
aI850
aa(lp401
I850
aI5
aI5
aI1109
aa(lp402
I193
aI4
aF0.1643989873053573
aI242
aa(lp403
I242
aI4
aF0.2
aI467
aa(lp404
I467
aI3
aF0.2
aI418
aa(lp405
I418
aI8
aF0.25
aI642
aa(lp406
I642
aI4
aF0.22360679774997896
aI595
aa(lp407
I595
aI6
aF0.35355339059327373
aI823
aa(lp408
I823
aI0
aF0.2773500981126146
aI770
aa(lp409
I770
aI8
aF0.35355339059327373
aI1058
aa(lp410
I1058
aI8
aF0.4472135954999579
aI1106
aa(lp411
I1106
aI4
aF0.4472135954999579
aI1395
aa(lp412
I1395
aI8
aI-10
aI1443
aa(lp413
I126
aI4
aF0.31622776601683794
aI175
aa(lp414
I175
aI0
aF0.3333333333333333
aI458
aa(lp415
I458
aI1
aF0.24253562503633297
aI502
aa(lp416
I502
aI7
aF0.5
aI763
aa(lp417
I763
aI6
aI10
aI991
aa(lp418
I55
aI0
aF0.15811388300841897
aI2
aa(lp419
I2
aI8
aF0.18569533817705186
aI290
aa(lp420
I290
aI4
aF0.18569533817705186
aI371
aa(lp421
I371
aI5
aF0.25
aI422
aa(lp422
I422
aI4
aF0.31622776601683794
aI711
aa(lp423
I711
aI5
aF0.4472135954999579
aI762
aa(lp424
I762
aI6
aI5
aI990
aa(lp425
I46
aI4
aF0.2773500981126146
aI127
aa(lp426
I127
aI1
aF0.24253562503633297
aI171
aa(lp427
I171
aI6
aF0.4472135954999579
aI463
aa(lp428
I463
aI3
aF0.4472135954999579
aI510
aa(lp429
I510
aI8
aF0.7071067811865475
aI734
aa(lp430
I734
aI4
aF0.7071067811865475
aI687
aa(lp431
I687
aI0
aF1.0
aI906
aa(lp432
I906
aI5
aI10
aI845
aa(lp433
I45
aI8
aF0.3333333333333333
aI93
aa(lp434
I93
aI1
aF0.3333333333333333
aI377
aa(lp435
I377
aI1
aF0.24253562503633297
aI421
aa(lp436
I421
aI2
aF0.25
aI706
aa(lp437
I706
aI4
aF0.25
aI755
aa(lp438
I755
aI3
aF0.31622776601683794
aI1010
aa(lp439
I1010
aI6
aF0.7071067811865475
aI1238
aa(lp440
I1238
aI5
aF1.0
aI1193
aa(lp441
I1193
aI0
aF0.5
aI1412
aa(lp442
I1412
aI6
aI-10
aI1368
aa(lp443
I105
aI4
aF0.3333333333333333
aI426
aa(lp444
I426
aI8
aF0.5
aI714
aa(lp445
I714
aI7
aI5
aI767
aa(lp446
I35
aI3
aF0.1643989873053573
aI82
aa(lp447
I82
aI3
aF0.2
aI369
aa(lp448
I369
aI4
aF0.2
aI418
aa(lp449
I418
aI5
aF0.31622776601683794
aI709
aa(lp450
I709
aI1
aF0.22360679774997896
aI753
aa(lp451
I753
aI5
aF0.2773500981126146
aI1012
aa(lp452
I1012
aI8
aF0.31622776601683794
aI1236
aa(lp453
I1236
aI1
aF0.35355339059327373
aI1184
aa(lp454
I1184
aI7
aI5
aI1413
aa(lp455
I215
aI3
aF0.2
aI166
aa(lp456
I166
aI6
aF0.3333333333333333
aI394
aa(lp457
I394
aI4
aF0.2773500981126146
aI347
aa(lp458
I347
aI8
aF0.35355339059327373
aI571
aa(lp459
I571
aI5
aF0.4472135954999579
aI526
aa(lp460
I526
aI3
aF1.0
aI781
aa(lp461
I781
aI2
aF0.5
aI1066
aa(lp462
I1066
aI8
aF1.0
aI1130
aa(lp463
I1130
aI0
aI-10
aI1445
aa(lp464
I53
aI3
aF0.2
aI4
aa(lp465
I4
aI6
aF0.3333333333333333
aI264
aa(lp466
I264
aI2
aF0.31622776601683794
aI517
aa(lp467
I517
aI5
aI5
aI776
aa(lp468
I168
aI8
aF0.2773500981126146
aI456
aa(lp469
I456
aI2
aF0.22360679774997896
aI501
aa(lp470
I501
aI5
aF0.2773500981126146
aI760
aa(lp471
I760
aI4
aF0.4472135954999579
aI985
aa(lp472
I985
aI3
aF0.4472135954999579
aI936
aa(lp473
I936
aI6
aF0.4472135954999579
aI1180
aa(lp474
I1180
aI2
aI-10
aI1369
aa(lp475
I12
aI8
aF0.5
aI300
aa(lp476
I300
aI2
aF0.3333333333333333
aI345
aa(lp477
I345
aI5
aF0.7071067811865475
aI604
aa(lp478
I604
aI4
aI10
aI893
aa(lp479
I166
aI3
aF0.24253562503633297
aI421
aa(lp480
I421
aI7
aF0.5
aI650
aa(lp481
I650
aI1
aF0.31622776601683794
aI598
aa(lp482
I598
aI1
aF0.31622776601683794
aI850
aa(lp483
I850
aI7
aF0.4472135954999579
aI1111
aa(lp484
I1111
aI6
aF0.4472135954999579
aI1339
aa(lp485
I1339
aI5
aF0.35355339059327373
aI1294
aa(lp486
I9
aI7
aF0.35355339059327373
aI270
aa(lp487
I270
aI4
aF0.31622776601683794
aI527
aa(lp488
I527
aI3
aF0.5
aI782
aa(lp489
I782
aI2
aF0.3333333333333333
aI1067
aa(lp490
I1067
aI8
aF0.5
aI1115
aa(lp491
I1115
aI8
aI-10
aI1371
aa(lp492
I161
aI7
aF0.25
aI390
aa(lp493
I390
aI5
aF0.3333333333333333
aI345
aa(lp494
I345
aI3
aF0.4472135954999579
aI600
aa(lp495
I600
aI1
aF0.4472135954999579
aI820
aa(lp496
I820
aI7
aF0.7071067811865475
aI777
aa(lp497
I777
aI1
aF0.7071067811865475
aI1029
aa(lp498
I1029
aI5
aF1.0
aI1288
aa(lp499
I91
aI1
aF0.22360679774997896
aI343
aa(lp500
I343
aI0
aF0.24253562503633297
aI594
aa(lp501
I594
aI6
aF0.4472135954999579
aI854
aa(lp502
I854
aI5
aI10
aI1113
aa(lp503
I8
aI4
aF0.31622776601683794
aI265
aa(lp504
I265
aI2
aF0.2773500981126146
aI550
aa(lp505
I550
aI3
aF0.3333333333333333
aI597
aa(lp506
I597
aI0
aF0.31622776601683794
aI880
aa(lp507
I880
aI6
aF0.35355339059327373
aI932
aa(lp508
I932
aI8
aF0.4472135954999579
aI1188
aa(lp509
I1188
aI2
aF0.7071067811865475
aI1473
aa(lp510
I1473
aI8
aF0.4472135954999579
aI1521
aa(lp511
I13
aI8
aF0.4472135954999579
aI269
aa(lp512
I269
aI0
aF0.5
aI520
aa(lp513
I520
aI6
aI10
aI780
aa(lp514
I213
aI1
aF0.1643989873053573
aI161
aa(lp515
I161
aI5
aF0.22360679774997896
aI388
aa(lp516
I388
aI4
aF0.25
aI341
aa(lp517
I341
aI3
aF0.31622776601683794
aI596
aa(lp518
I596
aI2
aF0.3333333333333333
aI817
aa(lp519
I817
aI8
aF0.31622776601683794
aI769
aa(lp520
I769
aI7
aF0.4472135954999579
aI1030
aa(lp521
I1030
aI0
aF0.7071067811865475
aI1313
aa(lp522
I1313
aI6
aI10
aI1365
aa(lp523
I44
aI1
aF0.24253562503633297
aI88
aa(lp524
I88
aI2
aF0.25
aI373
aa(lp525
I373
aI5
aF0.2773500981126146
aI424
aa(lp526
I424
aI6
aF0.4472135954999579
aI716
aa(lp527
I716
aI4
aF0.4472135954999579
aI765
aa(lp528
I765
aI1
aF0.4472135954999579
aI1017
aa(lp529
I1017
aI8
aF0.5
aI1241
aa(lp530
I1241
aI3
aF0.5
aI1192
aa(lp531
I1192
aI6
aF0.35355339059327373
aI1420
aa(lp532
I1420
aI8
aI-10
aI1372
aa(lp533
I240
aI7
aF0.22360679774997896
aI501
aa(lp534
I501
aI5
aF0.2773500981126146
aI760
aa(lp535
I760
aI2
aF0.35355339059327373
aI1013
aa(lp536
I1013
aI3
aF0.31622776601683794
aI1268
aa(lp537
I1268
aI1
aF0.31622776601683794
aI1488
aa(lp538
I1488
aI8
aI-10
aI1440
aa(lp539
I246
aI1
aF0.19611613513818404
aI466
aa(lp540
I466
aI4
aF0.19611613513818404
aI419
aa(lp541
I419
aI3
aF0.25
aI642
aa(lp542
I642
aI3
aF0.25
aI593
aa(lp543
I593
aI4
aF0.31622776601683794
aI818
aa(lp544
I818
aI6
aF0.35355339059327373
aI774
aa(lp545
I774
aI6
aF0.5
aI1034
aa(lp546
I1034
aI5
aF0.4472135954999579
aI1325
aa(lp547
I1325
aI3
aI-10
aI1372
aa(lp548
I128
aI6
aF0.19611613513818404
aI84
aa(lp549
I84
aI1
aF0.19611613513818404
aI320
aa(lp550
I320
aI6
aF0.3333333333333333
aI516
aa(lp551
I516
aI2
aF0.31622776601683794
aI769
aa(lp552
I769
aI8
aF0.4472135954999579
aI1057
aa(lp553
I1057
aI8
aF0.5
aI1105
aa(lp554
I1105
aI7
aI5
aI1398
aa(lp555
I246
aI3
aF0.22360679774997896
aI469
aa(lp556
I469
aI6
aF0.31622776601683794
aI425
aa(lp557
I425
aI6
aF0.7071067811865475
aI685
aa(lp558
I685
aI1
aF0.7071067811865475
aI937
aa(lp559
I937
aI6
aF0.7071067811865475
aI1197
aa(lp560
I1197
aI1
aF0.7071067811865475
aI1417
aa(lp561
I1417
aI6
aI-10
aI1373
aa(lp562
I121
aI6
aF0.31622776601683794
aI173
aa(lp563
I173
aI2
aF0.3333333333333333
aI458
aa(lp564
I458
aI8
aF0.31622776601683794
aI506
aa(lp565
I506
aI4
aF0.5
aI763
aa(lp566
I763
aI0
aF0.4472135954999579
aI1014
aa(lp567
I1014
aI0
aF0.35355339059327373
aI1265
aa(lp568
I1265
aI4
aF0.7071067811865475
aI1490
aa(lp569
I1490
aI7
aI-10
aI1447
aa(lp570
I244
aI4
aF0.22360679774997896
aI501
aa(lp571
I501
aI8
aF0.2773500981126146
aI725
aa(lp572
I725
aI2
aF0.25
aI674
aa(lp573
I674
aI3
aF0.31622776601683794
aI913
aa(lp574
I913
aI3
aF0.4472135954999579
aI1104
aa(lp575
I1104
aI6
aI5
aI1332
aa(lp576
I2
aI3
aF0.19611613513818404
aI289
aa(lp577
I289
aI7
aF0.24253562503633297
aI374
aa(lp578
I374
aI4
aF0.24253562503633297
aI423
aa(lp579
I423
aI3
aF0.3333333333333333
aI710
aa(lp580
I710
aI1
aF0.24253562503633297
aI754
aa(lp581
I754
aI6
aF0.4472135954999579
aI982
aa(lp582
I982
aI7
aF0.7071067811865475
aI939
aa(lp583
I939
aI1
aF0.7071067811865475
aI1159
aa(lp584
I1159
aI3
aF0.7071067811865475
aI1110
aa(lp585
I1110
aI6
aF0.7071067811865475
aI1338
aa(lp586
I1338
aI6
aF0.35355339059327373
aI1294
aa(lp587
I199
aI8
aF0.2
aI247
aa(lp588
I247
aI1
aF0.2
aI467
aa(lp589
I467
aI5
aF0.25
aI422
aa(lp590
I422
aI4
aF0.31622776601683794
aI647
aa(lp591
I647
aI3
aF0.31622776601683794
aI598
aa(lp592
I598
aI8
aF0.4472135954999579
aI822
aa(lp593
I822
aI7
aF0.31622776601683794
aI779
aa(lp594
I779
aI5
aF0.4472135954999579
aI1070
aa(lp595
I1070
aI3
aF1.0
aI1117
aa(lp596
I1117
aI0
aF0.7071067811865475
aI1400
aa(lp597
I1400
aI6
aI-10
aI1452
aa(lp598
I47
aI0
aF0.24253562503633297
aI90
aa(lp599
I90
aI1
aF0.24253562503633297
aI374
aa(lp600
I374
aI2
aF0.19611613513818404
aI451
aa(lp601
I451
aI3
aF0.19611613513818404
aI498
aa(lp602
I498
aI6
aF0.31622776601683794
aI726
aa(lp603
I726
aI1
aF0.25
aI674
aa(lp604
I674
aI5
aF0.4472135954999579
aI901
aa(lp605
I901
aI5
aI5
aI840
aa(lp606
I134
aI7
aF0.22360679774997896
aI91
aa(lp607
I91
aI8
aF0.2773500981126146
aI315
aa(lp608
I315
aI8
aF0.23570226039551587
aI267
aa(lp609
I267
aI8
aF0.2773500981126146
aI555
aa(lp610
I555
aI0
aF0.31622776601683794
aI598
aa(lp611
I598
aI5
aF1.0
aI889
aa(lp612
I889
aI3
aF0.4472135954999579
aI936
aa(lp613
I936
aI6
aF0.4472135954999579
aI1228
aa(lp614
I1228
aI2
aF0.5
aI1273
aa(lp615
I1273
aI4
aF0.7071067811865475
aI1530
aa(lp616
I160
aI4
aF0.19611613513818404
aI417
aa(lp617
I417
aI6
aF0.31622776601683794
aI677
aa(lp618
I677
aI0
aF0.2773500981126146
aI960
aa(lp619
I960
aI8
aF0.23570226039551587
aI1008
aa(lp620
I1008
aI4
aF0.35355339059327373
aI1265
aa(lp621
I1265
aI3
aF0.31622776601683794
aI1520
aa(lp622
I82
aI4
aF0.18569533817705186
aI371
aa(lp623
I371
aI6
aF0.24253562503633297
aI423
aa(lp624
I423
aI3
aF0.3333333333333333
aI678
aa(lp625
I678
aI6
aF1.0
aI970
aa(lp626
I970
aI6
aF1.0
aI1022
aa(lp627
I1022
aI3
aF0.4472135954999579
aI1277
aa(lp628
I1277
aI1
aF0.4472135954999579
aI1529
aa(lp629
I241
aI8
aF0.18569533817705186
aI465
aa(lp630
I465
aI8
aF0.19611613513818404
aI417
aa(lp631
I417
aI4
aF0.25
aI674
aa(lp632
I674
aI8
aF0.3333333333333333
aI898
aa(lp633
I898
aI7
aF0.35355339059327373
aI855
aa(lp634
I855
aI0
aF0.4472135954999579
aI1106
aa(lp635
I1106
aI8
aF0.7071067811865475
aI1330
aa(lp636
I1330
aI3
aF0.7071067811865475
aI1281
aa(lp637
I36
aI6
aF0.24253562503633297
aI88
aa(lp638
I88
aI8
aF0.31622776601683794
aI376
aa(lp639
I376
aI7
aF0.4472135954999579
aI429
aa(lp640
I429
aI3
aF0.4472135954999579
aI716
aa(lp641
I716
aI2
aF0.35355339059327373
aI761
aa(lp642
I761
aI0
aF0.2773500981126146
aI980
aa(lp643
I980
aI1
aF0.2773500981126146
aI928
aa(lp644
I928
aI8
aF0.35355339059327373
aI1152
aa(lp645
I1152
aI8
aF0.4472135954999579
aI1104
aa(lp646
I1104
aI8
aF0.7071067811865475
aI1328
aa(lp647
I1328
aI8
aI5
aI1280
aa(lp648
I25
aI7
aF0.4472135954999579
aI350
aa(lp649
I350
aI4
aF0.4472135954999579
aI639
aa(lp650
I639
aI3
aI5
aI686
aa(lp651
I200
aI2
aF0.18569533817705186
aI245
aa(lp652
I245
aI4
aF0.24253562503633297
aI470
aa(lp653
I470
aI8
aF0.25
aI390
aa(lp654
I390
aI3
aF0.25
aI341
aa(lp655
I341
aI7
aF0.4472135954999579
aI570
aa(lp656
I570
aI7
aF0.31622776601683794
aI527
aa(lp657
I527
aI8
aF0.3333333333333333
aI815
aa(lp658
I815
aI8
aF0.5
aI879
aa(lp659
I879
aI1
aI5
aI1227
aa(lp660
I200
aI1
aF0.17149858514250882
aI244
aa(lp661
I244
aI2
aF0.18569533817705186
aI497
aa(lp662
I497
aI8
aF0.22360679774997896
aI721
aa(lp663
I721
aI5
aF0.2773500981126146
aI660
aa(lp664
I660
aI7
aF1.0
aI841
aa(lp665
I841
aI1
aF0.7071067811865475
aI1029
aa(lp666
I1029
aI1
aF0.7071067811865475
aI1313
aa(lp667
I1313
aI5
aI-10
aI1364
aa(lp668
I80
aI7
aF0.25
aI309
aa(lp669
I309
aI0
aF0.2
aI256
aa(lp670
I256
aI8
aF0.25
aI512
aa(lp671
I512
aI8
aF0.3333333333333333
aI768
aa(lp672
I768
aI8
aF0.5
aI1024
aa(lp673
I1024
aI6
aI10
aI1284
aa(lp674
I137
aI6
aF0.3333333333333333
aI93
aa(lp675
I93
aI3
aF0.4472135954999579
aI316
aa(lp676
I316
aI8
aF0.5
aI268
aa(lp677
I268
aI2
aF0.4472135954999579
aI521
aa(lp678
I521
aI4
aF0.4472135954999579
aI778
aa(lp679
I778
aI3
aI5
aI1065
aa(lp680
I143
aI0
aF0.24253562503633297
aI58
aa(lp681
I58
aI3
aF0.24253562503633297
aI9
aa(lp682
I9
aI5
aF0.5
aI300
aa(lp683
I300
aI1
aF0.31622776601683794
aI344
aa(lp684
I344
aI1
aF0.31622776601683794
aI628
aa(lp685
I628
aI8
aF0.2773500981126146
aI708
aa(lp686
I708
aI2
aF0.22360679774997896
aI753
aa(lp687
I753
aI3
aF0.23570226039551587
aI976
aa(lp688
I976
aI6
aF0.35355339059327373
aI932
aa(lp689
I932
aI4
aF0.7071067811865475
aI1157
aa(lp690
I1157
aI1
aF0.5
aI1073
aa(lp691
I1073
aI3
aF0.5
aI1024
aa(lp692
I1024
aI6
aI10
aI1316
aa(lp693
I34
aI4
aF0.15811388300841897
aI83
aa(lp694
I83
aI6
aF0.22360679774997896
aI343
aa(lp695
I343
aI6
aF0.35355339059327373
aI635
aa(lp696
I635
aI3
aF0.5
aI682
aa(lp697
I682
aI2
aF0.4472135954999579
aI967
aa(lp698
I967
aI1
aF0.3333333333333333
aI1011
aa(lp699
I1011
aI5
aF0.7071067811865475
aI1270
aa(lp700
I1270
aI4
aI10
aI1527
aa(lp701
I7
aI5
aF0.2773500981126146
aI298
aa(lp702
I298
aI5
aF0.5
aI349
aa(lp703
I349
aI4
aF0.7071067811865475
aI638
aa(lp704
I638
aI0
aF0.4472135954999579
aI681
aa(lp705
I681
aI4
aF1.0
aI970
aa(lp706
I970
aI0
aF0.35355339059327373
aI1013
aa(lp707
I1013
aI7
aF1.0
aI1274
aa(lp708
I1274
aI4
aF1.0
aI1499
aa(lp709
I1499
aI0
aI10
aI1446
aa(lp710
I199
aI3
aF0.19611613513818404
aI246
aa(lp711
I246
aI5
aF0.2773500981126146
aI505
aa(lp712
I505
aI4
aF0.4472135954999579
aI762
aa(lp713
I762
aI7
aI10
aI1023
aa(lp714
I116
aI6
aF0.22360679774997896
aI168
aa(lp715
I168
aI1
aF0.22360679774997896
aI420
aa(lp716
I420
aI2
aF0.24253562503633297
aI705
aa(lp717
I705
aI3
aF0.2
aI752
aa(lp718
I752
aI6
aF0.2773500981126146
aI1012
aa(lp719
I1012
aI8
aF0.31622776601683794
aI1268
aa(lp720
I1268
aI8
aF0.3333333333333333
aI1492
aa(lp721
I1492
aI7
aI-10
aI1449
aa(lp722
I133
aI3
aF0.19611613513818404
aI84
aa(lp723
I84
aI2
aF0.2
aI305
aa(lp724
I305
aI3
aF0.2
aI256
aa(lp725
I256
aI6
aF0.3333333333333333
aI516
aa(lp726
I516
aI4
aF0.4472135954999579
aI805
aa(lp727
I805
aI6
aI5
aI857
aa(lp728
I251
aI8
aF0.3333333333333333
aI475
aa(lp729
I475
aI1
aF0.24253562503633297
aI423
aa(lp730
I423
aI0
aF0.25
aI674
aa(lp731
I674
aI8
aF0.3333333333333333
aI898
aa(lp732
I898
aI7
aF0.35355339059327373
aI855
aa(lp733
I855
aI0
aF0.4472135954999579
aI1106
aa(lp734
I1106
aI7
aF0.5
aI1335
aa(lp735
I1335
aI3
aF0.5
aI1286
aa(lp736
I90
aI5
aF0.5
aI349
aa(lp737
I349
aI0
aF0.4472135954999579
aI600
aa(lp738
I600
aI2
aF0.5
aI821
aa(lp739
I821
aI2
aF0.2773500981126146
aI770
aa(lp740
I770
aI8
aF0.35355339059327373
aI1026
aa(lp741
I1026
aI3
aF0.7071067811865475
aI1281
aa.