(lp0
(lp1
I120
aI4
aF0.24253562503633297
aI169
aa(lp2
I169
aI8
aF0.31622776601683794
aI457
aa(lp3
I457
aI0
aF0.2
aI500
aa(lp4
I500
aI7
aF0.35355339059327373
aI761
aa(lp5
I761
aI7
aI1
aI990
aa(lp6
I202
aI1
aF0.19611613513818404
aI246
aa(lp7
I246
aI7
aF0.3333333333333333
aI475
aa(lp8
I475
aI8
aF0.31622776601683794
aI427
aa(lp9
I427
aI8
aF0.4472135954999579
aI651
aa(lp10
I651
aI3
aF0.4472135954999579
aI602
aa(lp11
I602
aI5
aI10
aI829
aa(lp12
I173
aI2
aF0.3333333333333333
aI394
aa(lp13
I394
aI3
aF0.3333333333333333
aI345
aa(lp14
I345
aI8
aF0.5
aI569
aa(lp15
I569
aI4
aF0.35355339059327373
aI522
aa(lp16
I522
aI0
aF0.4472135954999579
aI773
aa(lp17
I773
aI5
aI10
aI1032
aa(lp18
I3
aI3
aF0.18569533817705186
aI290
aa(lp19
I290
aI3
aF0.2
aI337
aa(lp20
I337
aI6
aF0.3333333333333333
aI629
aa(lp21
I629
aI6
aF0.4472135954999579
aI681
aa(lp22
I681
aI1
aF0.4472135954999579
aI933
aa(lp23
I933
aI5
aF0.5
aI1224
aa(lp24
I1224
aI2
aF0.4472135954999579
aI1269
aa(lp25
I1269
aI3
aF0.3333333333333333
aI1524
aa(lp26
I171
aI8
aF0.31622776601683794
aI427
aa(lp27
I427
aI3
aF0.5
aI682
aa(lp28
I682
aI1
aF0.5
aI934
aa(lp29
I934
aI4
aF0.7071067811865475
aI1191
aa(lp30
I1191
aI5
aF1.0
aI1482
aa(lp31
I1482
aI7
aF0.5
aI1535
aa(lp32
I37
aI7
aF0.24253562503633297
aI122
aa(lp33
I122
aI2
aF0.19611613513818404
aI167
aa(lp34
I167
aI8
aF0.24253562503633297
aI455
aa(lp35
I455
aI5
aF0.31622776601683794
aI506
aa(lp36
I506
aI8
aF0.4472135954999579
aI730
aa(lp37
I730
aI5
aF0.7071067811865475
aI685
aa(lp38
I685
aI0
aF0.4472135954999579
aI904
aa(lp39
I904
aI2
aF0.5
aI837
aa(lp40
I837
aI5
aI10
aI1032
aa(lp41
I32
aI4
aF0.16666666666666666
aI81
aa(lp42
I81
aI5
aF0.24253562503633297
aI372
aa(lp43
I372
aI2
aF0.19611613513818404
aI449
aa(lp44
I449
aI8
aF0.18569533817705186
aI497
aa(lp45
I497
aI6
aF0.2773500981126146
aI725
aa(lp46
I725
aI0
aF0.22360679774997896
aI672
aa(lp47
I672
aI6
aF0.35355339059327373
aI900
aa(lp48
I900
aI8
aF0.4472135954999579
aI836
aa(lp49
I836
aI1
aF0.5
aI1024
aa(lp50
I1024
aI7
aI1
aI1317
aa(lp51
I114
aI7
aF0.19611613513818404
aI199
aa(lp52
I199
aI6
aF0.25
aI251
aa(lp53
I251
aI8
aF0.3333333333333333
aI475
aa(lp54
I475
aI1
aF0.24253562503633297
aI391
aa(lp55
I391
aI0
aF0.19611613513818404
aI338
aa(lp56
I338
aI8
aF0.24253562503633297
aI562
aa(lp57
I562
aI8
aF0.22360679774997896
aI514
aa(lp58
I514
aI8
aF0.2773500981126146
aI802
aa(lp59
I802
aI4
aF0.2773500981126146
aI883
aa(lp60
I883
aI6
aF0.4472135954999579
aI967
aa(lp61
I967
aI5
aF0.7071067811865475
aI1018
aa(lp62
I1018
aI8
aI1
aI1242
aa(lp63
I91
aI8
aF0.2773500981126146
aI347
aa(lp64
I347
aI1
aF0.2773500981126146
aI599
aa(lp65
I599
aI1
aF0.2773500981126146
aI851
aa(lp66
I851
aI8
aF0.35355339059327373
aI1107
aa(lp67
I1107
aI8
aF0.4472135954999579
aI1363
aa(lp68
I208
aI7
aF0.19611613513818404
aI165
aa(lp69
I165
aI7
aF0.3333333333333333
aI394
aa(lp70
I394
aI3
aF0.3333333333333333
aI345
aa(lp71
I345
aI5
aF0.7071067811865475
aI572
aa(lp72
I572
aI4
aF0.7071067811865475
aI525
aa(lp73
I525
aI3
aI2
aI780
aa(lp74
I166
aI2
aF0.19611613513818404
aI451
aa(lp75
I451
aI6
aF0.25
aI503
aa(lp76
I503
aI1
aF0.25
aI755
aa(lp77
I755
aI5
aF0.4472135954999579
aI1014
aa(lp78
I1014
aI2
aF0.5
aI1267
aa(lp79
I1267
aI3
aF0.7071067811865475
aI1522
aa(lp80
I253
aI0
aF0.23570226039551587
aI472
aa(lp81
I472
aI8
aF0.2773500981126146
aI424
aa(lp82
I424
aI8
aF0.35355339059327373
aI648
aa(lp83
I648
aI4
aF0.5
aI601
aa(lp84
I601
aI4
aF0.7071067811865475
aI858
aa(lp85
I858
aI3
aI2
aI1081
aa(lp86
I213
aI6
aF0.24253562503633297
aI137
aa(lp87
I137
aI2
aF0.19611613513818404
aI86
aa(lp88
I86
aI8
aF0.24253562503633297
aI310
aa(lp89
I310
aI8
aF0.22360679774997896
aI262
aa(lp90
I262
aI5
aF0.4472135954999579
aI553
aa(lp91
I553
aI4
aF0.4472135954999579
aI634
aa(lp92
I634
aI7
aF0.7071067811865475
aI719
aa(lp93
I719
aI0
aF0.4472135954999579
aI762
aa(lp94
I762
aI1
aF0.4472135954999579
aI982
aa(lp95
I982
aI6
aI1
aI938
aa(lp96
I220
aI4
aF0.31622776601683794
aI173
aa(lp97
I173
aI1
aF0.31622776601683794
aI393
aa(lp98
I393
aI1
aF0.25
aI341
aa(lp99
I341
aI5
aF0.4472135954999579
aI600
aa(lp100
I600
aI1
aF0.4472135954999579
aI820
aa(lp101
I820
aI8
aF0.5
aI772
aa(lp102
I772
aI8
aI1
aI1028
aa(lp103
I168
aI2
aF0.24253562503633297
aI421
aa(lp104
I421
aI8
aF0.31622776601683794
aI677
aa(lp105
I677
aI8
aF0.4472135954999579
aI933
aa(lp106
I933
aI7
aI10
aI1162
aa(lp107
I198
aI1
aF0.1643989873053573
aI242
aa(lp108
I242
aI8
aF0.19611613513818404
aI498
aa(lp109
I498
aI3
aF0.22360679774997896
aI721
aa(lp110
I721
aI5
aF0.2773500981126146
aI676
aa(lp111
I676
aI8
aF0.35355339059327373
aI900
aa(lp112
I900
aI7
aI1
aI857
aa(lp113
I203
aI1
aF0.2
aI247
aa(lp114
I247
aI0
aF0.19611613513818404
aI466
aa(lp115
I466
aI6
aF0.25
aI422
aa(lp116
I422
aI4
aF0.31622776601683794
aI647
aa(lp117
I647
aI3
aF0.31622776601683794
aI566
aa(lp118
I566
aI1
aF0.22360679774997896
aI514
aa(lp119
I514
aI7
aF0.2773500981126146
aI791
aa(lp120
I791
aI0
aF0.4472135954999579
aI1138
aa(lp121
I1138
aI6
aI1
aI1190
aa(lp122
I161
aI4
aF0.2
aI450
aa(lp123
I450
aI7
aF0.25
aI503
aa(lp124
I503
aI8
aF0.3333333333333333
aI759
aa(lp125
I759
aI0
aF0.31622776601683794
aI978
aa(lp126
I978
aI6
aF0.5
aI934
aa(lp127
I934
aI5
aF1.0
aI1193
aa(lp128
I1193
aI0
aF0.5
aI1412
aa(lp129
I1412
aI1
aF0.7071067811865475
aI1360
aa(lp130
I250
aI7
aF0.5
aI479
aa(lp131
I479
aI0
aF0.3333333333333333
aI426
aa(lp132
I426
aI4
aF0.4472135954999579
aI683
aa(lp133
I683
aI5
aI10
aI910
aa(lp134
I92
aI8
aF0.4472135954999579
aI380
aa(lp135
I380
aI1
aF0.2773500981126146
aI424
aa(lp136
I424
aI2
aF0.31622776601683794
aI709
aa(lp137
I709
aI1
aF0.22360679774997896
aI753
aa(lp138
I753
aI4
aF0.31622776601683794
aI1010
aa(lp139
I1010
aI8
aF0.4472135954999579
aI1266
aa(lp140
I1266
aI8
aF0.7071067811865475
aI1490
aa(lp141
I1490
aI3
aF0.7071067811865475
aI1441
aa(lp142
I119
aI0
aF0.16666666666666666
aI194
aa(lp143
I194
aI7
aF0.2
aI247
aa(lp144
I247
aI6
aF0.3333333333333333
aI507
aa(lp145
I507
aI6
aF1.0
aI735
aa(lp146
I735
aI3
aF1.0
aI654
aa(lp147
I654
aI3
aI1
aI605
aa(lp148
I135
aI6
aF0.22360679774997896
aI91
aa(lp149
I91
aI0
aF0.24253562503633297
aI310
aa(lp150
I310
aI7
aF0.23570226039551587
aI267
aa(lp151
I267
aI8
aF0.2773500981126146
aI523
aa(lp152
I523
aI5
aF0.5
aI814
aa(lp153
I814
aI2
aF0.4472135954999579
aI875
aa(lp154
I875
aI1
aI1
aI1207
aa(lp155
I171
aI0
aF0.25
aI422
aa(lp156
I422
aI7
aF0.4472135954999579
aI715
aa(lp157
I715
aI8
aF0.5
aI763
aa(lp158
I763
aI8
aI1
aI1019
aa(lp159
I169
aI0
aF0.22360679774997896
aI420
aa(lp160
I420
aI1
aF0.22360679774997896
aI672
aa(lp161
I672
aI4
aF0.31622776601683794
aI961
aa(lp162
I961
aI6
aF0.35355339059327373
aI1013
aa(lp163
I1013
aI0
aF0.2773500981126146
aI1264
aa(lp164
I1264
aI4
aF0.4472135954999579
aI1521
aa(lp165
I45
aI4
aF0.31622776601683794
aI94
aa(lp166
I94
aI0
aF0.3333333333333333
aI345
aa(lp167
I345
aI0
aF0.31622776601683794
aI596
aa(lp168
I596
aI6
aF0.7071067811865475
aI888
aa(lp169
I888
aI2
aF0.4472135954999579
aI933
aa(lp170
I933
aI5
aF0.5
aI1192
aa(lp171
I1192
aI1
aF0.5
aI1476
aa(lp172
I1476
aI8
aF0.3333333333333333
aI1524
aa(lp173
I87
aI5
aF0.31622776601683794
aI346
aa(lp174
I346
aI1
aF0.31622776601683794
aI598
aa(lp175
I598
aI1
aF0.31622776601683794
aI850
aa(lp176
I850
aI7
aF0.4472135954999579
aI1111
aa(lp177
I1111
aI5
aF0.7071067811865475
aI1370
aa(lp178
I209
aI4
aF0.16666666666666666
aI162
aa(lp179
I162
aI6
aF0.25
aI390
aa(lp180
I390
aI7
aF0.2773500981126146
aI347
aa(lp181
I347
aI3
aF0.4472135954999579
aI570
aa(lp182
I570
aI2
aF0.23570226039551587
aI519
aa(lp183
I519
aI0
aF0.2773500981126146
aI770
aa(lp184
I770
aI3
aF0.4472135954999579
aI1057
aa(lp185
I1057
aI5
aF0.7071067811865475
aI1108
aa(lp186
I1108
aI1
aF0.7071067811865475
aI1360
aa(lp187
I37
aI3
aF0.19611613513818404
aI116
aa(lp188
I116
aI7
aF0.24253562503633297
aI169
aa(lp189
I169
aI6
aF0.4472135954999579
aI461
aa(lp190
I461
aI0
aF0.23570226039551587
aI504
aa(lp191
I504
aI6
aF0.31622776601683794
aI764
aa(lp192
I764
aI4
aF0.5
aI989
aa(lp193
I989
aI4
aI2
aI942
aa(lp194
I223
aI0
aF0.25
aI170
aa(lp195
I170
aI6
aF0.5
aI398
aa(lp196
I398
aI0
aF0.3333333333333333
aI345
aa(lp197
I345
aI5
aI1
aI588
aa(lp198
I10
aI4
aF0.23570226039551587
aI267
aa(lp199
I267
aI3
aF0.35355339059327373
aI522
aa(lp200
I522
aI0
aF0.4472135954999579
aI773
aa(lp201
I773
aI5
aI10
aI1064
aa(lp202
I202
aI7
aF0.3333333333333333
aI255
aa(lp203
I255
aI3
aF0.4472135954999579
aI478
aa(lp204
I478
aI1
aF0.3333333333333333
aI394
aa(lp205
I394
aI4
aF0.2773500981126146
aI331
aa(lp206
I331
aI0
aF0.2773500981126146
aI550
aa(lp207
I550
aI1
aF0.24253562503633297
aI594
aa(lp208
I594
aI6
aF0.4472135954999579
aI886
aa(lp209
I886
aI3
aF0.4472135954999579
aI965
aa(lp210
I965
aI7
aF0.7071067811865475
aI1018
aa(lp211
I1018
aI4
aI2
aI1243
aa(lp212
I190
aI3
aF0.35355339059327373
aI509
aa(lp213
I509
aI2
aF0.4472135954999579
aI762
aa(lp214
I762
aI6
aI1
aI990
aa(lp215
I215
aI1
aF0.1643989873053573
aI163
aa(lp216
I163
aI8
aF0.19611613513818404
aI419
aa(lp217
I419
aI8
aF0.24253562503633297
aI643
aa(lp218
I643
aI6
aF0.2773500981126146
aI599
aa(lp219
I599
aI8
aF0.35355339059327373
aI823
aa(lp220
I823
aI1
aF0.23570226039551587
aI771
aa(lp221
I771
aI8
aF0.2773500981126146
aI1027
aa(lp222
I1027
aI6
aF0.3333333333333333
aI1287
aa(lp223
I218
aI6
aF0.3333333333333333
aI174
aa(lp224
I174
aI2
aF0.31622776601683794
aI395
aa(lp225
I395
aI5
aF0.4472135954999579
aI350
aa(lp226
I350
aI4
aF0.4472135954999579
aI575
aa(lp227
I575
aI3
aF0.4472135954999579
aI526
aa(lp228
I526
aI2
aF0.31622776601683794
aI779
aa(lp229
I779
aI5
aF0.4472135954999579
aI1070
aa(lp230
I1070
aI4
aF0.4472135954999579
aI1119
aa(lp231
I1119
aI8
aF0.35355339059327373
aI1407
aa(lp232
I1407
aI1
aF0.7071067811865475
aI1451
aa(lp233
I3
aI5
aF0.22360679774997896
aI294
aa(lp234
I294
aI1
aF0.19611613513818404
aI338
aa(lp235
I338
aI7
aF0.2773500981126146
aI631
aa(lp236
I631
aI0
aF0.25
aI706
aa(lp237
I706
aI6
aF0.31622776601683794
aI758
aa(lp238
I758
aI8
aF0.4472135954999579
aI1014
aa(lp239
I1014
aI2
aF0.5
aI1235
aa(lp240
I1235
aI5
aI1
aI1190
aa(lp241
I50
aI3
aF0.1643989873053573
aI1
aa(lp242
I1
aI6
aF0.24253562503633297
aI293
aa(lp243
I293
aI0
aF0.19611613513818404
aI336
aa(lp244
I336
aI6
aF0.31622776601683794
aI628
aa(lp245
I628
aI2
aF0.24253562503633297
aI673
aa(lp246
I673
aI4
aF0.3333333333333333
aI962
aa(lp247
I962
aI3
aF0.2773500981126146
aI1009
aa(lp248
I1009
aI5
aF0.31622776601683794
aI1268
aa(lp249
I1268
aI8
aF0.3333333333333333
aI1492
aa(lp250
I1492
aI1
aF0.4472135954999579
aI1440
aa(lp251
I167
aI0
aF0.2
aI418
aa(lp252
I418
aI5
aF0.31622776601683794
aI709
aa(lp253
I709
aI8
aF0.2773500981126146
aI757
aa(lp254
I757
aI0
aF0.23570226039551587
aI1008
aa(lp255
I1008
aI8
aF0.2773500981126146
aI1264
aa(lp256
I1264
aI7
aF0.5
aI1525
aa(lp257
I128
aI6
aF0.19611613513818404
aI84
aa(lp258
I84
aI1
aF0.19611613513818404
aI304
aa(lp259
I304
aI7
aF0.24253562503633297
aI261
aa(lp260
I261
aI1
aF0.24253562503633297
aI545
aa(lp261
I545
aI8
aF0.25
aI593
aa(lp262
I593
aI4
aF0.31622776601683794
aI882
aa(lp263
I882
aI8
aF0.3333333333333333
aI946
aa(lp264
I946
aI8
aF0.4472135954999579
aI1266
aa(lp265
I1266
aI3
aF0.4472135954999579
aI1489
aa(lp266
I1489
aI4
aI1
aI1442
aa(lp267
I132
aI7
aF0.25
aI89
aa(lp268
I89
aI2
aF0.24253562503633297
aI310
aa(lp269
I310
aI0
aF0.19611613513818404
aI257
aa(lp270
I257
aI6
aF0.31622776601683794
aI517
aa(lp271
I517
aI0
aF0.3333333333333333
aI800
aa(lp272
I800
aI8
aF0.31622776601683794
aI848
aa(lp273
I848
aI7
aF1.0
aI1141
aa(lp274
I1141
aI7
aI10
aI1194
aa(lp275
I14
aI2
aF0.23570226039551587
aI267
aa(lp276
I267
aI5
aF0.4472135954999579
aI526
aa(lp277
I526
aI1
aF0.4472135954999579
aI778
aa(lp278
I778
aI6
aF0.4472135954999579
aI1038
aa(lp279
I1038
aI4
aF0.2773500981126146
aI1295
aa(lp280
I51
aI5
aF0.18569533817705186
aI6
aa(lp281
I6
aI8
aF0.22360679774997896
aI294
aa(lp282
I294
aI3
aF0.25
aI341
aa(lp283
I341
aI3
aF0.31622776601683794
aI628
aa(lp284
I628
aI1
aF0.22360679774997896
aI688
aa(lp285
I688
aI8
aF0.23570226039551587
aI1008
aa(lp286
I1008
aI6
aF0.31622776601683794
aI1236
aa(lp287
I1236
aI1
aF0.35355339059327373
aI1152
aa(lp288
I1152
aI8
aF0.4472135954999579
aI1104
aa(lp289
I1104
aI7
aI10
aI1333
aa(lp290
I198
aI6
aF0.24253562503633297
aI250
aa(lp291
I250
aI3
aF0.2773500981126146
aI473
aa(lp292
I473
aI2
aF0.25
aI422
aa(lp293
I422
aI1
aF0.25
aI642
aa(lp294
I642
aI3
aF0.25
aI593
aa(lp295
I593
aI4
aF0.31622776601683794
aI818
aa(lp296
I818
aI5
aF0.4472135954999579
aI773
aa(lp297
I773
aI8
aF0.7071067811865475
aI1029
aa(lp298
I1029
aI2
aF0.4472135954999579
aI1314
aa(lp299
I1314
aI6
aF1.0
aI1366
aa(lp300
I223
aI3
aF0.3333333333333333
aI174
aa(lp301
I174
aI8
aF0.5
aI430
aa(lp302
I430
aI2
aF0.4472135954999579
aI651
aa(lp303
I651
aI1
aF0.2773500981126146
aI599
aa(lp304
I599
aI6
aF0.4472135954999579
aI827
aa(lp305
I827
aI8
aF0.31622776601683794
aI779
aa(lp306
I779
aI8
aF0.3333333333333333
aI1035
aa(lp307
I1035
aI3
aF0.4472135954999579
aI1290
aa(lp308
I138
aI4
aF0.22360679774997896
aI91
aa(lp309
I91
aI0
aF0.24253562503633297
aI326
aa(lp310
I326
aI3
aF0.31622776601683794
aI517
aa(lp311
I517
aI8
aF0.4472135954999579
aI773
aa(lp312
I773
aI5
aI10
aI1064
aa(lp313
I251
aI5
aF0.4472135954999579
aI478
aa(lp314
I478
aI8
aF0.5
aI430
aa(lp315
I430
aI8
aF1.0
aI654
aa(lp316
I654
aI3
aI1
aI605
aa(lp317
I205
aI1
aF0.22360679774997896
aI249
aa(lp318
I249
aI2
aF0.24253562503633297
aI470
aa(lp319
I470
aI4
aF0.24253562503633297
aI423
aa(lp320
I423
aI3
aF0.3333333333333333
aI646
aa(lp321
I646
aI1
aF0.24253562503633297
aI594
aa(lp322
I594
aI3
aF0.3333333333333333
aI817
aa(lp323
I817
aI7
aF0.35355339059327373
aI774
aa(lp324
I774
aI2
aF0.2773500981126146
aI1059
aa(lp325
I1059
aI3
aF0.4472135954999579
aI1106
aa(lp326
I1106
aI3
aF1.0
aI1393
aa(lp327
I1393
aI6
aF1.0
aI1477
aa(lp328
I1477
aI7
aF0.7071067811865475
aI1530
aa(lp329
I207
aI3
aF0.31622776601683794
aI254
aa(lp330
I254
aI3
aF0.35355339059327373
aI477
aa(lp331
I477
aI3
aF0.35355339059327373
aI396
aa(lp332
I396
aI1
aF0.31622776601683794
aI344
aa(lp333
I344
aI8
aF0.4472135954999579
aI568
aa(lp334
I568
aI4
aF0.4472135954999579
aI521
aa(lp335
I521
aI5
aI10
aI812
aa(lp336
I52
aI8
aF0.2
aI4
aa(lp337
I4
aI7
aF0.31622776601683794
aI265
aa(lp338
I265
aI3
aF0.5
aI520
aa(lp339
I520
aI6
aI10
aI780
aa(lp340
I136
aI1
aF0.19611613513818404
aI84
aa(lp341
I84
aI4
aF0.25
aI309
aa(lp342
I309
aI8
aF0.24253562503633297
aI261
aa(lp343
I261
aI7
aF0.35355339059327373
aI554
aa(lp344
I554
aI0
aF0.3333333333333333
aI597
aa(lp345
I597
aI4
aF0.4472135954999579
aI886
aa(lp346
I886
aI3
aF0.4472135954999579
aI965
aa(lp347
I965
aI1
aF0.2773500981126146
aI1009
aa(lp348
I1009
aI8
aF0.35355339059327373
aI1265
aa(lp349
I1265
aI8
aF0.4472135954999579
aI1489
aa(lp350
I1489
aI8
aI1
aI1425
aa(lp351
I11
aI5
aF0.35355339059327373
aI302
aa(lp352
I302
aI8
aF0.4472135954999579
aI350
aa(lp353
I350
aI3
aF1.0
aI637
aa(lp354
I637
aI1
aF0.4472135954999579
aI697
aa(lp355
I697
aI7
aF1.0
aI1022
aa(lp356
I1022
aI4
aF1.0
aI1247
aa(lp357
I1247
aI3
aF1.0
aI1198
aa(lp358
I1198
aI1
aF1.0
aI1418
aa(lp359
I1418
aI4
aF0.4472135954999579
aI1371
aa(lp360
I160
aI8
aF0.18569533817705186
aI448
aa(lp361
I448
aI4
aF0.18569533817705186
aI497
aa(lp362
I497
aI8
aF0.22360679774997896
aI753
aa(lp363
I753
aI6
aF0.35355339059327373
aI1013
aa(lp364
I1013
aI8
aF0.4472135954999579
aI1269
aa(lp365
I1269
aI6
aF0.4472135954999579
aI1529
aa(lp366
I242
aI4
aF0.2
aI499
aa(lp367
I499
aI8
aF0.25
aI755
aa(lp368
I755
aI5
aF0.4472135954999579
aI982
aa(lp369
I982
aI1
aF0.3333333333333333
aI930
aa(lp370
I930
aI4
aF0.4472135954999579
aI1187
aa(lp371
I1187
aI3
aI1
aI1442
aa(lp372
I2
aI3
aF0.19611613513818404
aI289
aa(lp373
I289
aI3
aF0.19611613513818404
aI336
aa(lp374
I336
aI4
aF0.25
aI625
aa(lp375
I625
aI6
aF0.31622776601683794
aI677
aa(lp376
I677
aI4
aF0.5
aI966
aa(lp377
I966
aI5
aF0.4472135954999579
aI1017
aa(lp378
I1017
aI8
aF0.5
aI1273
aa(lp379
I1273
aI2
aI1
aI1494
aa(lp380
I196
aI8
aF0.17149858514250882
aI244
aa(lp381
I244
aI6
aF0.23570226039551587
aI504
aa(lp382
I504
aI7
aF0.4472135954999579
aI733
aa(lp383
I733
aI1
aF0.4472135954999579
aI681
aa(lp384
I681
aI0
aF0.35355339059327373
aI900
aa(lp385
I900
aI1
aF0.31622776601683794
aI832
aa(lp386
I832
aI6
aI1
aI1028
aa(lp387
I5
aI7
aF0.2773500981126146
aI298
aa(lp388
I298
aI6
aF0.4472135954999579
aI350
aa(lp389
I350
aI3
aF1.0
aI637
aa(lp390
I637
aI1
aF0.4472135954999579
aI681
aa(lp391
I681
aI4
aF1.0
aI970
aa(lp392
I970
aI7
aI10
aI1023
aa(lp393
I32
aI7
aF0.2
aI85
aa(lp394
I85
aI2
aF0.19611613513818404
aI370
aa(lp395
I370
aI4
aF0.19611613513818404
aI451
aa(lp396
I451
aI5
aF0.24253562503633297
aI502
aa(lp397
I502
aI0
aF0.22360679774997896
aI721
aa(lp398
I721
aI6
aF0.31622776601683794
aI677
aa(lp399
I677
aI1
aF0.31622776601683794
aI897
aa(lp400
I897
aI6
aF0.5
aI821
aa(lp401
I821
aI1
aF0.31622776601683794
aI769
aa(lp402
I769
aI6
aF0.7071067811865475
aI1061
aa(lp403
I1061
aI3
aF0.7071067811865475
aI1108
aa(lp404
I1108
aI2
aF1.0
aI1393
aa(lp405
I1393
aI8
aF0.7071067811865475
aI1473
aa(lp406
I1473
aI3
aF0.31622776601683794
aI1520
aa(lp407
I49
aI5
aF0.2
aI4
aa(lp408
I4
aI4
aF0.24253562503633297
aI277
aa(lp409
I277
aI6
aF0.5
aI633
aa(lp410
I633
aI0
aF0.2773500981126146
aI676
aa(lp411
I676
aI4
aF0.4472135954999579
aI965
aa(lp412
I965
aI8
aF0.35355339059327373
aI1013
aa(lp413
I1013
aI2
aF0.4472135954999579
aI1266
aa(lp414
I1266
aI3
aF0.4472135954999579
aI1489
aa(lp415
I1489
aI4
aF1.0
aI1410
aa(lp416
I1410
aI3
aI1
aI1361
aa(lp417
I50
aI8
aF0.15811388300841897
aI2
aa(lp418
I2
aI7
aF0.2
aI263
aa(lp419
I263
aI8
aF0.23570226039551587
aI535
aa(lp420
I535
aI1
aF0.2773500981126146
aI851
aa(lp421
I851
aI5
aF0.7071067811865475
aI1142
aa(lp422
I1142
aI0
aF0.4472135954999579
aI1185
aa(lp423
I1185
aI5
aF0.5
aI1476
aa(lp424
I1476
aI1
aF0.31622776601683794
aI1520
aa(lp425
I168
aI7
aF0.4472135954999579
aI397
aa(lp426
I397
aI4
aF0.4472135954999579
aI350
aa(lp427
I350
aI4
aF0.4472135954999579
aI607
aa(lp428
I607
aI8
aF0.5
aI831
aa(lp429
I831
aI3
aF0.5
aI782
aa(lp430
I782
aI3
aF0.7071067811865475
aI1037
aa(lp431
I1037
aI0
aF1.0
aI1288
aa(lp432
I167
aI1
aF0.19611613513818404
aI451
aa(lp433
I451
aI5
aF0.24253562503633297
aI502
aa(lp434
I502
aI8
aF0.31622776601683794
aI758
aa(lp435
I758
aI8
aF0.4472135954999579
aI998
aa(lp436
I998
aI2
aF0.4472135954999579
aI1187
aa(lp437
I1187
aI5
aI10
aI1414
aa(lp438
I113
aI7
aF0.2
aI166
aa(lp439
I166
aI1
aF0.2
aI450
aa(lp440
I450
aI3
aF0.18569533817705186
aI497
aa(lp441
I497
aI4
aF0.24253562503633297
aI754
aa(lp442
I754
aI8
aF0.31622776601683794
aI978
aa(lp443
I978
aI8
aF0.3333333333333333
aI930
aa(lp444
I930
aI7
aF0.7071067811865475
aI1159
aa(lp445
I1159
aI1
aF0.35355339059327373
aI1107
aa(lp446
I1107
aI6
aF0.5
aI1335
aa(lp447
I1335
aI3
aF0.5
aI1286
aa(lp448
I52
aI1
aF0.16666666666666666
aI0
aa(lp449
I0
aI6
aF0.25
aI260
aa(lp450
I260
aI6
aF0.5
aI520
aa(lp451
I520
aI2
aF0.4472135954999579
aI805
aa(lp452
I805
aI4
aF0.4472135954999579
aI854
aa(lp453
I854
aI8
aF0.7071067811865475
aI1142
aa(lp454
I1142
aI1
aF0.5
aI1186
aa(lp455
I1186
aI7
aF1.0
aI1463
aa(lp456
I243
aI6
aF0.25
aI503
aa(lp457
I503
aI1
aF0.25
aI723
aa(lp458
I723
aI8
aF0.24253562503633297
aI675
aa(lp459
I675
aI5
aF0.5
aI902
aa(lp460
I902
aI8
aF0.4472135954999579
aI854
aa(lp461
I854
aI0
aF0.5
aI1105
aa(lp462
I1105
aI6
aI10
aI1333
aa(lp463
I42
aI0
aF0.2
aI117
aa(lp464
I117
aI3
aF0.18569533817705186
aI196
aa(lp465
I196
aI8
aF0.17149858514250882
aI244
aa(lp466
I244
aI1
aF0.17149858514250882
aI464
aa(lp467
I464
aI6
aF0.22360679774997896
aI420
aa(lp468
I420
aI4
aF0.31622776601683794
aI645
aa(lp469
I645
aI8
aF0.3333333333333333
aI565
aa(lp470
I565
aI2
aF0.22360679774997896
aI514
aa(lp471
I514
aI8
aF0.2773500981126146
aI802
aa(lp472
I802
aI5
aF0.5
aI885
aa(lp473
I885
aI2
aF0.3333333333333333
aI946
aa(lp474
I946
aI3
aF0.35355339059327373
aI1233
aa(lp475
I1233
aI3
aF0.35355339059327373
aI1184
aa(lp476
I1184
aI6
aF0.5
aI1412
aa(lp477
I1412
aI1
aF0.7071067811865475
aI1328
aa(lp478
I1328
aI8
aI1
aI1280
aa(lp479
I2
aI7
aF0.2
aI263
aa(lp480
I263
aI0
aF0.22360679774997896
aI546
aa(lp481
I546
aI8
aF0.24253562503633297
aI594
aa(lp482
I594
aI6
aF0.4472135954999579
aI854
aa(lp483
I854
aI7
aF0.5
aI1115
aa(lp484
I1115
aI6
aF0.35355339059327373
aI1375
aa(lp485
I2
aI8
aF0.18569533817705186
aI258
aa(lp486
I258
aI8
aF0.22360679774997896
aI514
aa(lp487
I514
aI8
aF0.2773500981126146
aI802
aa(lp488
I802
aI8
aF0.31622776601683794
aI850
aa(lp489
I850
aI5
aI1
aI1109
aa(lp490
I35
aI3
aF0.1643989873053573
aI114
aa(lp491
I114
aI8
aF0.16666666666666666
aI162
aa(lp492
I162
aI3
aF0.19611613513818404
aI449
aa(lp493
I449
aI3
aF0.17149858514250882
aI496
aa(lp494
I496
aI4
aF0.22360679774997896
aI721
aa(lp495
I721
aI3
aF0.22360679774997896
aI672
aa(lp496
I672
aI4
aF0.31622776601683794
aI897
aa(lp497
I897
aI8
aF0.3333333333333333
aI817
aa(lp498
I817
aI5
aF0.5
aI772
aa(lp499
I772
aI4
aF0.7071067811865475
aI1061
aa(lp500
I1061
aI6
aI10
aI1113
aa(lp501
I13
aI0
aF0.3333333333333333
aI296
aa(lp502
I296
aI2
aF0.25
aI341
aa(lp503
I341
aI7
aF0.4472135954999579
aI602
aa(lp504
I602
aI6
aF1.0
aI862
aa(lp505
I862
aI1
aI1
aI1146
aa(lp506
I254
aI2
aF0.3333333333333333
aI475
aa(lp507
I475
aI1
aF0.24253562503633297
aI391
aa(lp508
I391
aI6
aF0.2773500981126146
aI347
aa(lp509
I347
aI0
aF0.31622776601683794
aI566
aa(lp510
I566
aI7
aF0.2773500981126146
aI523
aa(lp511
I523
aI1
aF0.2773500981126146
aI775
aa(lp512
I775
aI1
aF0.2773500981126146
aI1059
aa(lp513
I1059
aI3
aF0.4472135954999579
aI1138
aa(lp514
I1138
aI5
aF0.7071067811865475
aI1189
aa(lp515
I1189
aI7
aF1.0
aI1482
aa(lp516
I1482
aI6
aF0.4472135954999579
aI1534
aa(lp517
I81
aI7
aF0.24253562503633297
aI310
aa(lp518
I310
aI1
aF0.18569533817705186
aI258
aa(lp519
I258
aI8
aF0.22360679774997896
aI514
aa(lp520
I514
aI7
aF0.2773500981126146
aI775
aa(lp521
I775
aI1
aF0.2773500981126146
aI1027
aa(lp522
I1027
aI5
aF0.5
aI1286
aa(lp523
I83
aI8
aF0.18569533817705186
aI339
aa(lp524
I339
aI3
aF0.24253562503633297
aI594
aa(lp525
I594
aI6
aF0.4472135954999579
aI854
aa(lp526
I854
aI6
aF1.0
aI1114
aa(lp527
I1114
aI0
aI-2
aI1365
aa(lp528
I142
aI4
aF0.2773500981126146
aI63
aa(lp529
I63
aI1
aF0.2
aI11
aa(lp530
I11
aI6
aF0.2773500981126146
aI303
aa(lp531
I303
aI8
aF0.35355339059327373
aI351
aa(lp532
I351
aI1
aF0.35355339059327373
aI635
aa(lp533
I635
aI0
aF0.3333333333333333
aI710
aa(lp534
I710
aI4
aF0.3333333333333333
aI759
aa(lp535
I759
aI6
aF1.0
aI987
aa(lp536
I987
aI5
aI10
aI942
aa(lp537
I170
aI8
aF0.3333333333333333
aI426
aa(lp538
I426
aI0
aF0.31622776601683794
aI693
aa(lp539
I693
aI8
aF0.35355339059327373
aI1013
aa(lp540
I1013
aI7
aF1.0
aI1274
aa(lp541
I1274
aI3
aF0.4472135954999579
aI1529
aa(lp542
I195
aI8
aF0.16666666666666666
aI243
aa(lp543
I243
aI6
aF0.25
aI503
aa(lp544
I503
aI0
aF0.24253562503633297
aI722
aa(lp545
I722
aI3
aF0.24253562503633297
aI673
aa(lp546
I673
aI6
aF0.4472135954999579
aI901
aa(lp547
I901
aI7
aF0.7071067811865475
aI858
aa(lp548
I858
aI2
aF0.4472135954999579
aI1079
aa(lp549
I1079
aI6
aF0.3333333333333333
aI1035
aa(lp550
I1035
aI6
aF0.2773500981126146
aI1295
aa(lp551
I95
aI0
aF0.31622776601683794
aI378
aa(lp552
I378
aI7
aF0.4472135954999579
aI431
aa(lp553
I431
aI8
aF0.7071067811865475
aI687
aa(lp554
I687
aI1
aF0.7071067811865475
aI939
aa(lp555
I939
aI1
aF0.7071067811865475
aI1223
aa(lp556
I1223
aI5
aF1.0
aI1274
aa(lp557
I1274
aI0
aF0.5
aI1525
aa(lp558
I161
aI7
aF0.25
aI454
aa(lp559
I454
aI8
aF0.24253562503633297
aI502
aa(lp560
I502
aI6
aF0.4472135954999579
aI762
aa(lp561
I762
aI8
aF0.7071067811865475
aI1018
aa(lp562
I1018
aI6
aF0.7071067811865475
aI1278
aa(lp563
I1278
aI3
aF0.35355339059327373
aI1533
aa(lp564
I202
aI3
aF0.22360679774997896
aI249
aa(lp565
I249
aI6
aF0.35355339059327373
aI477
aa(lp566
I477
aI2
aF0.3333333333333333
aI426
aa(lp567
I426
aI5
aF0.7071067811865475
aI653
aa(lp568
I653
aI8
aF1.0
aI573
aa(lp569
I573
aI0
aF0.5
aI520
aa(lp570
I520
aI8
aF1.0
aI808
aa(lp571
I808
aI4
aI1
aI857
aa(lp572
I92
aI1
aF0.31622776601683794
aI344
aa(lp573
I344
aI4
aF0.5
aI601
aa(lp574
I601
aI4
aF0.7071067811865475
aI858
aa(lp575
I858
aI4
aF0.5
aI1115
aa(lp576
I1115
aI3
aF0.7071067811865475
aI1370
aa(lp577
I159
aI8
aF0.35355339059327373
aI351
aa(lp578
I351
aI3
aF0.7071067811865475
aI574
aa(lp579
I574
aI1
aF0.35355339059327373
aI522
aa(lp580
I522
aI4
aF0.31622776601683794
aI779
aa(lp581
I779
aI3
aF0.5
aI1034
aa(lp582
I1034
aI5
aF0.4472135954999579
aI1325
aa(lp583
I1325
aI1
aF1.0
aI1369
aa(lp584
I136
aI6
aF0.31622776601683794
aI92
aa(lp585
I92
aI1
aF0.31622776601683794
aI344
aa(lp586
I344
aI2
aF0.3333333333333333
aI565
aa(lp587
I565
aI1
aF0.24253562503633297
aI513
aa(lp588
I513
aI4
aF0.2773500981126146
aI770
aa(lp589
I770
aI7
aF0.31622776601683794
aI1031
aa(lp590
I1031
aI0
aF0.4472135954999579
aI1314
aa(lp591
I1314
aI3
aI1
aI1361
aa(lp592
I8
aI7
aF0.4472135954999579
aI301
aa(lp593
I301
aI4
aF0.4472135954999579
aI350
aa(lp594
I350
aI0
aF0.5
aI633
aa(lp595
I633
aI0
aF0.2773500981126146
aI676
aa(lp596
I676
aI7
aF0.7071067811865475
aI969
aa(lp597
I969
aI5
aF0.3333333333333333
aI1020
aa(lp598
I1020
aI2
aF0.5
aI1273
aa(lp599
I1273
aI6
aF0.35355339059327373
aI1501
aa(lp600
I1501
aI0
aF0.4472135954999579
aI1448
aa(lp601
I138
aI1
aF0.19611613513818404
aI86
aa(lp602
I86
aI1
aF0.19611613513818404
aI306
aa(lp603
I306
aI8
aF0.18569533817705186
aI258
aa(lp604
I258
aI4
aF0.2
aI515
aa(lp605
I515
aI8
aF0.23570226039551587
aI803
aa(lp606
I803
aI3
aF0.31622776601683794
aI850
aa(lp607
I850
aI4
aF0.35355339059327373
aI1139
aa(lp608
I1139
aI8
aF0.4472135954999579
aI1187
aa(lp609
I1187
aI8
aF0.7071067811865475
aI1475
aa(lp610
I1475
aI6
aI10
aI1527
aa(lp611
I4
aI8
aF0.25
aI260
aa(lp612
I260
aI1
aF0.25
aI512
aa(lp613
I512
aI8
aF0.3333333333333333
aI800
aa(lp614
I800
aI4
aF0.3333333333333333
aI849
aa(lp615
I849
aI3
aF0.4472135954999579
aI1104
aa(lp616
I1104
aI8
aF0.7071067811865475
aI1392
aa(lp617
I1392
aI6
aF0.5
aI1444
aa(lp618
I207
aI0
aF0.24253562503633297
aI250
aa(lp619
I250
aI0
aF0.22360679774997896
aI501
aa(lp620
I501
aI3
aF0.23570226039551587
aI756
aa(lp621
I756
aI2
aF0.2773500981126146
aI1009
aa(lp622
I1009
aI7
aF0.7071067811865475
aI1238
aa(lp623
I1238
aI1
aF0.5
aI1186
aa(lp624
I1186
aI4
aF0.7071067811865475
aI1443
aa(lp625
I90
aI7
aF0.35355339059327373
aI383
aa(lp626
I383
aI8
aF0.4472135954999579
aI431
aa(lp627
I431
aI1
aF0.4472135954999579
aI683
aa(lp628
I683
aI6
aI1
aI975
aa(lp629
I35
aI5
aF0.19611613513818404
aI118
aa(lp630
I118
aI8
aF0.2
aI198
aa(lp631
I198
aI7
aF0.25
aI251
aa(lp632
I251
aI3
aF0.31622776601683794
aI474
aa(lp633
I474
aI1
aF0.25
aI422
aa(lp634
I422
aI4
aF0.31622776601683794
aI647
aa(lp635
I647
aI5
aF0.4472135954999579
aI570
aa(lp636
I570
aI3
aF0.4472135954999579
aI521
aa(lp637
I521
aI7
aF0.5
aI814
aa(lp638
I814
aI4
aF0.5
aI895
aa(lp639
I895
aI3
aI2
aI974
aa(lp640
I10
aI8
aF0.2773500981126146
aI266
aa(lp641
I266
aI3
aF0.4472135954999579
aI521
aa(lp642
I521
aI7
aF0.5
aI782
aa(lp643
I782
aI8
aF0.4472135954999579
aI1038
aa(lp644
I1038
aI2
aF0.31622776601683794
aI1291
aa(lp645
I213
aI7
aF0.25
aI138
aa(lp646
I138
aI3
aF0.25
aI89
aa(lp647
I89
aI1
aF0.25
aI309
aa(lp648
I309
aI8
aF0.24253562503633297
aI261
aa(lp649
I261
aI5
aF0.5
aI552
aa(lp650
I552
aI6
aF0.7071067811865475
aI636
aa(lp651
I636
aI8
aF0.4472135954999579
aI684
aa(lp652
I684
aI2
aF0.7071067811865475
aI969
aa(lp653
I969
aI7
aF1.0
aI1022
aa(lp654
I1022
aI2
aI-2
aI1243
aa(lp655
I116
aI2
aF0.1643989873053573
aI161
aa(lp656
I161
aI7
aF0.25
aI422
aa(lp657
I422
aI1
aF0.25
aI674
aa(lp658
I674
aI7
aF0.4472135954999579
aI935
aa(lp659
I935
aI0
aF0.5
aI1186
aa(lp660
I1186
aI3
aF0.7071067811865475
aI1473
aa(lp661
I1473
aI8
aF0.4472135954999579
aI1521
aa(lp662
I119
aI8
aF0.19611613513818404
aI167
aa(lp663
I167
aI3
aF0.25
aI454
aa(lp664
I454
aI5
aF0.2773500981126146
aI505
aa(lp665
I505
aI7
aF0.7071067811865475
aI766
aa(lp666
I766
aI2
aF1.0
aI987
aa(lp667
I987
aI6
aF1.0
aI943
aa(lp668
I943
aI8
aF0.7071067811865475
aI1167
aa(lp669
I1167
aI8
aF0.4472135954999579
aI1103
aa(lp670
I1103
aI3
aF0.35355339059327373
aI1294
aa(lp671
I5
aI5
aF0.3333333333333333
aI264
aa(lp672
I264
aI7
aF0.7071067811865475
aI525
aa(lp673
I525
aI1
aF0.7071067811865475
aI777
aa(lp674
I777
aI7
aF0.4472135954999579
aI1038
aa(lp675
I1038
aI0
aF0.7071067811865475
aI1289
aa(lp676
I204
aI4
aF0.2773500981126146
aI253
aa(lp677
I253
aI3
aF0.2773500981126146
aI476
aa(lp678
I476
aI1
aF0.2773500981126146
aI392
aa(lp679
I392
aI7
aF0.5
aI349
aa(lp680
I349
aI4
aF0.7071067811865475
aI574
aa(lp681
I574
aI1
aF0.35355339059327373
aI522
aa(lp682
I522
aI0
aF0.4472135954999579
aI805
aa(lp683
I805
aI8
aF0.5
aI885
aa(lp684
I885
aI0
aF0.2773500981126146
aI928
aa(lp685
I928
aI8
aF0.35355339059327373
aI1216
aa(lp686
I1216
aI6
aF0.31622776601683794
aI1268
aa(lp687
I1268
aI2
aF0.4472135954999579
aI1489
aa(lp688
I1489
aI4
aF1.0
aI1410
aa(lp689
I1410
aI5
aI10
aI1365
aa(lp690
I249
aI1
aF0.22360679774997896
aI469
aa(lp691
I469
aI5
aF0.2773500981126146
aI424
aa(lp692
I424
aI2
aF0.31622776601683794
aI677
aa(lp693
I677
aI1
aF0.31622776601683794
aI897
aa(lp694
I897
aI7
aF0.4472135954999579
aI854
aa(lp695
I854
aI1
aF0.4472135954999579
aI1074
aa(lp696
I1074
aI6
aF0.4472135954999579
aI1030
aa(lp697
I1030
aI0
aF0.7071067811865475
aI1281
aa(lp698
I203
aI3
aF0.24253562503633297
aI250
aa(lp699
I250
aI1
aF0.24253562503633297
aI470
aa(lp700
I470
aI8
aF0.25
aI390
aa(lp701
I390
aI8
aF0.24253562503633297
aI342
aa(lp702
I342
aI4
aF0.2773500981126146
aI567
aa(lp703
I567
aI0
aF0.22360679774997896
aI514
aa(lp704
I514
aI6
aF0.35355339059327373
aI806
aa(lp705
I806
aI4
aF0.35355339059327373
aI887
aa(lp706
I887
aI5
aI1
aI938
aa(lp707
I137
aI6
aF0.3333333333333333
aI61
aa(lp708
I61
aI0
aF0.25
aI8
aa(lp709
I8
aI6
aF0.5
aI268
aa(lp710
I268
aI8
aF1.0
aI556
aa(lp711
I556
aI2
aF0.5
aI633
aa(lp712
I633
aI0
aF0.2773500981126146
aI676
aa(lp713
I676
aI7
aF0.7071067811865475
aI969
aa(lp714
I969
aI1
aF0.35355339059327373
aI1013
aa(lp715
I1013
aI0
aF0.2773500981126146
aI1232
aa(lp716
I1232
aI7
aF0.7071067811865475
aI1189
aa(lp717
I1189
aI1
aF0.7071067811865475
aI1409
aa(lp718
I1409
aI4
aF0.7071067811865475
aI1362
aa(lp719
I240
aI4
aF0.18569533817705186
aI497
aa(lp720
I497
aI6
aF0.2773500981126146
aI757
aa(lp721
I757
aI4
aF0.4472135954999579
aI1014
aa(lp722
I1014
aI2
aF0.5
aI1267
aa(lp723
I1267
aI3
aF0.7071067811865475
aI1522
aa(lp724
I200
aI4
aF0.22360679774997896
aI249
aa(lp725
I249
aI1
aF0.22360679774997896
aI501
aa(lp726
I501
aI5
aF0.2773500981126146
aI760
aa(lp727
I760
aI6
aF0.3333333333333333
aI988
aa(lp728
I988
aI2
aF0.7071067811865475
aI937
aa(lp729
I937
aI5
aF0.4472135954999579
aI1164
aa(lp730
I1164
aI1
aF1.0
aI1112
aa(lp731
I1112
aI4
aF1.0
aI1337
aa(lp732
I1337
aI1
aF1.0
aI1285
aa(lp733
I221
aI3
aF0.2773500981126146
aI172
aa(lp734
I172
aI2
aF0.31622776601683794
aI393
aa(lp735
I393
aI0
aF0.24253562503633297
aI308
aa(lp736
I308
aI2
aF0.19611613513818404
aI257
aa(lp737
I257
aI3
aF0.25
aI544
aa(lp738
I544
aI6
aF0.31622776601683794
aI596
aa(lp739
I596
aI8
aF0.4472135954999579
aI884
aa(lp740
I884
aI1
aF0.2773500981126146
aI928
aa(lp741
I928
aI8
aF0.35355339059327373
aI1216
aa(lp742
I1216
aI8
aF0.2773500981126146
aI1264
aa(lp743
I1264
aI6
aF0.3333333333333333
aI1492
aa(lp744
I1492
aI4
aI1
aI1413
aa(lp745
I92
aI2
aF0.3333333333333333
aI345
aa(lp746
I345
aI2
aF0.31622776601683794
aI598
aa(lp747
I598
aI1
aF0.31622776601683794
aI850
aa(lp748
I850
aI6
aF0.7071067811865475
aI1110
aa(lp749
I1110
aI3
aI2
aI1365
aa(lp750
I61
aI8
aF0.31622776601683794
aI13
aa(lp751
I13
aI4
aF0.35355339059327373
aI270
aa(lp752
I270
aI3
aF0.7071067811865475
aI557
aa(lp753
I557
aI3
aF0.7071067811865475
aI604
aa(lp754
I604
aI2
aF1.0
aI889
aa(lp755
I889
aI7
aI10
aI942
aa.