(lp0
(lp1
I183
aI6
aF0.3333333333333333
aI475
aa(lp2
I475
aI8
aF0.31622776601683794
aI427
aa(lp3
I427
aI8
aF0.4472135954999579
aI683
aa(lp4
I683
aI6
aF1.0
aI959
aa(lp5
I959
aI0
aF1.0
aI1258
aa(lp6
I1258
aI0
aF1.0
aI1477
aa(lp7
I1477
aI0
aF0.31622776601683794
aI1488
aa(lp8
I1488
aI4
aF0.7071067811865475
aI1409
aa(lp9
I1409
aI4
aF0.7071067811865475
aI1394
aa(lp10
I1394
aI3
aF0.7071067811865475
aI1457
aa(lp11
I102
aI6
aF0.3333333333333333
aI426
aa(lp12
I426
aI2
aF0.31622776601683794
aI711
aa(lp13
I711
aI5
aF0.4472135954999579
aI762
aa(lp14
I762
aI7
aI10
aI1007
aa(lp15
I234
aI0
aF0.24253562503633297
aI405
aa(lp16
I405
aI4
aF0.31622776601683794
aI598
aa(lp17
I598
aI3
aF0.5
aI837
aa(lp18
I837
aI0
aF0.5
aI1056
aa(lp19
I1056
aI7
aF1.0
aI1141
aa(lp20
I1141
aI7
aI10
aI1162
aa(lp21
I4
aI1
aF0.2
aI288
aa(lp22
I288
aI4
aF0.2
aI337
aa(lp23
I337
aI7
aF0.31622776601683794
aI614
aa(lp24
I614
aI1
aF0.3333333333333333
aI930
aa(lp25
I930
aI4
aF0.4472135954999579
aI1155
aa(lp26
I1155
aI8
aF0.35355339059327373
aI1091
aa(lp27
I1091
aI3
aF0.4472135954999579
aI1282
aa(lp28
I225
aI6
aF0.24253562503633297
aI421
aa(lp29
I421
aI7
aF0.5
aI666
aa(lp30
I666
aI1
aF0.4472135954999579
aI854
aa(lp31
I854
aI4
aF0.4472135954999579
aI1143
aa(lp32
I1143
aI1
aF0.4472135954999579
aI1187
aa(lp33
I1187
aI5
aI10
aI1478
aa(lp34
I194
aI6
aF0.19611613513818404
aI230
aa(lp35
I230
aI2
aF0.19611613513818404
aI451
aa(lp36
I451
aI6
aF0.25
aI471
aa(lp37
I471
aI0
aF0.2
aI450
aa(lp38
I450
aI6
aF0.24253562503633297
aI486
aa(lp39
I486
aI7
aF0.4472135954999579
aI651
aa(lp40
I651
aI6
aF0.4472135954999579
aI607
aa(lp41
I607
aI8
aF0.5
aI831
aa(lp42
I831
aI3
aF0.5
aI814
aa(lp43
I814
aI4
aF0.5
aI879
aa(lp44
I879
aI1
aF1.0
aI1163
aa(lp45
I1163
aI0
aF0.7071067811865475
aI1094
aa(lp46
I1094
aI6
aF0.4472135954999579
aI1322
aa(lp47
I1322
aI1
aI-1
aI1366
aa(lp48
I31
aI1
aF0.2773500981126146
aI315
aa(lp49
I315
aI6
aF0.2773500981126146
aI303
aa(lp50
I303
aI0
aF0.31622776601683794
aI330
aa(lp51
I330
aI4
aF0.2773500981126146
aI555
aa(lp52
I555
aI5
aF0.7071067811865475
aI638
aa(lp53
I638
aI3
aF0.7071067811865475
aI669
aa(lp54
I54
aI3
aF0.19611613513818404
aI21
aa(lp55
I21
aI1
aF0.2
aI337
aa(lp56
I337
aI6
aF0.3333333333333333
aI597
aa(lp57
I597
aI3
aF0.4472135954999579
aI868
aa(lp58
I868
aI4
aF0.7071067811865475
aI1157
aa(lp59
I1157
aI1
aF0.5
aI1137
aa(lp60
I1137
aI5
aF0.4472135954999579
aI1204
aa(lp61
I1204
aI4
aF0.5
aI1493
aa(lp62
I1493
aI7
aI-1
aI1434
aa(lp63
I154
aI4
aF0.2773500981126146
aI363
aa(lp64
I363
aI0
aF0.3333333333333333
aI646
aa(lp65
I646
aI7
aF0.35355339059327373
aI603
aa(lp66
I603
aI8
aF0.4472135954999579
aI843
aa(lp67
I843
aI8
aF0.3333333333333333
aI1067
aa(lp68
I1067
aI5
aF0.7071067811865475
aI1150
aa(lp69
I1150
aI4
aF0.7071067811865475
aI1231
aa(lp70
I1231
aI1
aI10
aI1275
aa(lp71
I4
aI7
aF0.31622776601683794
aI281
aa(lp72
I281
aI3
aF0.4472135954999579
aI568
aa(lp73
I568
aI4
aF0.4472135954999579
aI521
aa(lp74
I521
aI0
aF0.5
aI772
aa(lp75
I772
aI4
aF0.7071067811865475
aI1061
aa(lp76
I1061
aI4
aF0.7071067811865475
aI1126
aa.